
main.elf:     file format elf32-avr

Sections:
Idx Name          Size      VMA       LMA       File off  Algn
  0 .text         00002180  00000000  00000000  00000094  2**1
                  CONTENTS, ALLOC, LOAD, READONLY, CODE
  1 .data         0000015c  00800060  00002180  00002214  2**0
                  CONTENTS, ALLOC, LOAD, DATA
  2 .bss          00000183  008001bc  008001bc  00002370  2**0
                  ALLOC
  3 .stab         00001968  00000000  00000000  00002370  2**2
                  CONTENTS, READONLY, DEBUGGING
  4 .stabstr      000002e1  00000000  00000000  00003cd8  2**0
                  CONTENTS, READONLY, DEBUGGING
  5 .comment      00000011  00000000  00000000  00003fb9  2**0
                  CONTENTS, READONLY
  6 .debug_aranges 00000108  00000000  00000000  00003fca  2**0
                  CONTENTS, READONLY, DEBUGGING
  7 .debug_info   000050be  00000000  00000000  000040d2  2**0
                  CONTENTS, READONLY, DEBUGGING
  8 .debug_abbrev 00001276  00000000  00000000  00009190  2**0
                  CONTENTS, READONLY, DEBUGGING
  9 .debug_line   00001120  00000000  00000000  0000a406  2**0
                  CONTENTS, READONLY, DEBUGGING
 10 .debug_frame  00000db8  00000000  00000000  0000b528  2**2
                  CONTENTS, READONLY, DEBUGGING
 11 .debug_str    0000146c  00000000  00000000  0000c2e0  2**0
                  CONTENTS, READONLY, DEBUGGING
 12 .debug_loc    0000273b  00000000  00000000  0000d74c  2**0
                  CONTENTS, READONLY, DEBUGGING
 13 .debug_ranges 00000048  00000000  00000000  0000fe87  2**0
                  CONTENTS, READONLY, DEBUGGING

Disassembly of section .text:

00000000 <__vectors>:
       0:	0c 94 6a 00 	jmp	0xd4	; 0xd4 <__ctors_end>
       4:	0c 94 75 04 	jmp	0x8ea	; 0x8ea <__vector_1>
       8:	0c 94 a1 04 	jmp	0x942	; 0x942 <__vector_2>
       c:	0c 94 cd 04 	jmp	0x99a	; 0x99a <__vector_3>
      10:	0c 94 87 00 	jmp	0x10e	; 0x10e <__bad_interrupt>
      14:	0c 94 87 00 	jmp	0x10e	; 0x10e <__bad_interrupt>
      18:	0c 94 87 00 	jmp	0x10e	; 0x10e <__bad_interrupt>
      1c:	0c 94 87 00 	jmp	0x10e	; 0x10e <__bad_interrupt>
      20:	0c 94 87 00 	jmp	0x10e	; 0x10e <__bad_interrupt>
      24:	0c 94 87 00 	jmp	0x10e	; 0x10e <__bad_interrupt>
      28:	0c 94 2a 06 	jmp	0xc54	; 0xc54 <__vector_10>
      2c:	0c 94 87 00 	jmp	0x10e	; 0x10e <__bad_interrupt>
      30:	0c 94 87 00 	jmp	0x10e	; 0x10e <__bad_interrupt>
      34:	0c 94 15 09 	jmp	0x122a	; 0x122a <__vector_13>
      38:	0c 94 87 00 	jmp	0x10e	; 0x10e <__bad_interrupt>
      3c:	0c 94 87 00 	jmp	0x10e	; 0x10e <__bad_interrupt>
      40:	0c 94 87 00 	jmp	0x10e	; 0x10e <__bad_interrupt>
      44:	0c 94 87 00 	jmp	0x10e	; 0x10e <__bad_interrupt>
      48:	0c 94 87 00 	jmp	0x10e	; 0x10e <__bad_interrupt>
      4c:	0c 94 15 0c 	jmp	0x182a	; 0x182a <__vector_19>
      50:	0c 94 87 00 	jmp	0x10e	; 0x10e <__bad_interrupt>

00000054 <__c.2439>:
      54:	0a 0a 50 43 35 20 69 73 20 4c 4f 57 21 0a 0a 00     ..PC5 is LOW!...

00000064 <__c.2437>:
      64:	0a 0a 50 43 35 20 69 73 20 48 49 47 48 21 0a 0a     ..PC5 is HIGH!..
	...

00000075 <__c.2435>:
      75:	0a 0a 50 43 33 20 69 73 20 4c 4f 57 21 0a 0a 00     ..PC3 is LOW!...

00000085 <__c.2433>:
      85:	0a 0a 50 43 33 20 69 73 20 48 49 47 48 21 0a 0a     ..PC3 is HIGH!..
	...

00000096 <__c.2431>:
      96:	0a 0a 50 43 32 20 69 73 20 4c 4f 57 21 0a 0a 00     ..PC2 is LOW!...

000000a6 <__c.2429>:
      a6:	0a 0a 50 43 32 20 69 73 20 48 49 47 48 21 0a 0a     ..PC2 is HIGH!..
	...

000000b7 <__c.2420>:
      b7:	23 00                                               #.

000000b9 <__c.2414>:
      b9:	0a 49 32 43 20 45 52 52 4f 52 20 2d 20 54 57 49     .I2C ERROR - TWI
      c9:	20 53 54 41 54 45 3a 20 30 78 00                     STATE: 0x.

000000d4 <__ctors_end>:
      d4:	11 24       	eor	r1, r1
      d6:	1f be       	out	0x3f, r1	; 63
      d8:	cf e5       	ldi	r28, 0x5F	; 95
      da:	d8 e0       	ldi	r29, 0x08	; 8
      dc:	de bf       	out	0x3e, r29	; 62
      de:	cd bf       	out	0x3d, r28	; 61

000000e0 <__do_copy_data>:
      e0:	11 e0       	ldi	r17, 0x01	; 1
      e2:	a0 e6       	ldi	r26, 0x60	; 96
      e4:	b0 e0       	ldi	r27, 0x00	; 0
      e6:	e0 e8       	ldi	r30, 0x80	; 128
      e8:	f1 e2       	ldi	r31, 0x21	; 33
      ea:	02 c0       	rjmp	.+4      	; 0xf0 <__do_copy_data+0x10>
      ec:	05 90       	lpm	r0, Z+
      ee:	0d 92       	st	X+, r0
      f0:	ac 3b       	cpi	r26, 0xBC	; 188
      f2:	b1 07       	cpc	r27, r17
      f4:	d9 f7       	brne	.-10     	; 0xec <__do_copy_data+0xc>

000000f6 <__do_clear_bss>:
      f6:	13 e0       	ldi	r17, 0x03	; 3
      f8:	ac eb       	ldi	r26, 0xBC	; 188
      fa:	b1 e0       	ldi	r27, 0x01	; 1
      fc:	01 c0       	rjmp	.+2      	; 0x100 <.do_clear_bss_start>

000000fe <.do_clear_bss_loop>:
      fe:	1d 92       	st	X+, r1

00000100 <.do_clear_bss_start>:
     100:	af 33       	cpi	r26, 0x3F	; 63
     102:	b1 07       	cpc	r27, r17
     104:	e1 f7       	brne	.-8      	; 0xfe <.do_clear_bss_loop>
     106:	0e 94 bb 0e 	call	0x1d76	; 0x1d76 <main>
     10a:	0c 94 be 10 	jmp	0x217c	; 0x217c <_exit>

0000010e <__bad_interrupt>:
     10e:	0c 94 00 00 	jmp	0	; 0x0 <__vectors>

00000112 <I2C_transmissionError>:
 *   - slave not active or not connected to the I2C-Bus
 *   - too fast requests for a slower slave
 * Be sure to check this if you get I2C errors!
 */
void I2C_transmissionError(uint8_t errorState)
{
     112:	cf 93       	push	r28
     114:	c8 2f       	mov	r28, r24
	writeString_P("\nI2C ERROR - TWI STATE: 0x");
     116:	89 eb       	ldi	r24, 0xB9	; 185
     118:	90 e0       	ldi	r25, 0x00	; 0
     11a:	0e 94 8c 08 	call	0x1118	; 0x1118 <writeNStringP>
	writeInteger(errorState, HEX);
     11e:	60 e1       	ldi	r22, 0x10	; 16
     120:	8c 2f       	mov	r24, r28
     122:	90 e0       	ldi	r25, 0x00	; 0
     124:	0e 94 b8 08 	call	0x1170	; 0x1170 <writeInteger>
	writeChar('\n');
     128:	8a e0       	ldi	r24, 0x0A	; 10
}
     12a:	cf 91       	pop	r28
 */
void I2C_transmissionError(uint8_t errorState)
{
	writeString_P("\nI2C ERROR - TWI STATE: 0x");
	writeInteger(errorState, HEX);
	writeChar('\n');
     12c:	0c 94 7c 08 	jmp	0x10f8	; 0x10f8 <writeChar>

00000130 <watchDogRequest>:
 * does not work in this example as we use blocked moving functions here.
 */
void watchDogRequest(void)
{	
	static uint8_t heartbeat2 = false;
	if(heartbeat2)
     130:	80 91 c6 01 	lds	r24, 0x01C6
     134:	88 23       	and	r24, r24
     136:	41 f0       	breq	.+16     	; 0x148 <watchDogRequest+0x18>
	{
		clearPosLCD(0, 14, 1);
     138:	41 e0       	ldi	r20, 0x01	; 1
     13a:	6e e0       	ldi	r22, 0x0E	; 14
     13c:	80 e0       	ldi	r24, 0x00	; 0
     13e:	0e 94 42 08 	call	0x1084	; 0x1084 <clearPosLCD>
		heartbeat2 = false;
     142:	10 92 c6 01 	sts	0x01C6, r1
     146:	08 95       	ret
	}
	else
	{
		setCursorPosLCD(0, 14);
     148:	6e e0       	ldi	r22, 0x0E	; 14
     14a:	80 e0       	ldi	r24, 0x00	; 0
     14c:	0e 94 51 07 	call	0xea2	; 0xea2 <setCursorPosLCD>
		writeStringLCD_P("#"); 
     150:	87 eb       	ldi	r24, 0xB7	; 183
     152:	90 e0       	ldi	r25, 0x00	; 0
     154:	0e 94 a5 07 	call	0xf4a	; 0xf4a <writeNStringLCD_P>
		heartbeat2 = true;
     158:	81 e0       	ldi	r24, 0x01	; 1
     15a:	80 93 c6 01 	sts	0x01C6, r24
     15e:	08 95       	ret

00000160 <writeButtonPressOnLCD>:
	}
}


void writeButtonPressOnLCD(uint8_t button, int pressed)
{
     160:	1f 93       	push	r17
     162:	cf 93       	push	r28
     164:	df 93       	push	r29
     166:	18 2f       	mov	r17, r24
     168:	eb 01       	movw	r28, r22
	clearLCD();
     16a:	0e 94 97 07 	call	0xf2e	; 0xf2e <clearLCD>
	setCursorPosLCD(0,0);
     16e:	60 e0       	ldi	r22, 0x00	; 0
     170:	80 e0       	ldi	r24, 0x00	; 0
     172:	0e 94 51 07 	call	0xea2	; 0xea2 <setCursorPosLCD>
	writeStringLCD("btn:     times:");
     176:	8a e7       	ldi	r24, 0x7A	; 122
     178:	90 e0       	ldi	r25, 0x00	; 0
     17a:	0e 94 d0 07 	call	0xfa0	; 0xfa0 <writeStringLCD>
	setCursorPosLCD(1,0);
     17e:	60 e0       	ldi	r22, 0x00	; 0
     180:	81 e0       	ldi	r24, 0x01	; 1
     182:	0e 94 51 07 	call	0xea2	; 0xea2 <setCursorPosLCD>
	writeIntegerLCD(button, DEC);
     186:	6a e0       	ldi	r22, 0x0A	; 10
     188:	81 2f       	mov	r24, r17
     18a:	90 e0       	ldi	r25, 0x00	; 0
     18c:	0e 94 dc 07 	call	0xfb8	; 0xfb8 <writeIntegerLCD>
	writeStringLCD("        ");
     190:	8a e8       	ldi	r24, 0x8A	; 138
     192:	90 e0       	ldi	r25, 0x00	; 0
     194:	0e 94 d0 07 	call	0xfa0	; 0xfa0 <writeStringLCD>
	writeIntegerLCD(pressed, DEC);
     198:	6a e0       	ldi	r22, 0x0A	; 10
     19a:	ce 01       	movw	r24, r28
}
     19c:	df 91       	pop	r29
     19e:	cf 91       	pop	r28
     1a0:	1f 91       	pop	r17
	setCursorPosLCD(0,0);
	writeStringLCD("btn:     times:");
	setCursorPosLCD(1,0);
	writeIntegerLCD(button, DEC);
	writeStringLCD("        ");
	writeIntegerLCD(pressed, DEC);
     1a2:	0c 94 dc 07 	jmp	0xfb8	; 0xfb8 <writeIntegerLCD>

000001a6 <task_checkButtonChanged>:
uint8_t timesPressed3 = 0;
uint8_t timesPressed5 = 0;

void task_checkButtonChanged(void)
{
	if((PINC & IO_PC2) !=  lastButton2State)
     1a6:	23 b3       	in	r18, 0x13	; 19
     1a8:	24 70       	andi	r18, 0x04	; 4
     1aa:	30 e0       	ldi	r19, 0x00	; 0
     1ac:	80 91 c4 01 	lds	r24, 0x01C4
     1b0:	90 91 c5 01 	lds	r25, 0x01C5
     1b4:	28 17       	cp	r18, r24
     1b6:	39 07       	cpc	r19, r25
     1b8:	59 f1       	breq	.+86     	; 0x210 <task_checkButtonChanged+0x6a>
			{
				buttenChanged();
     1ba:	0e 94 36 04 	call	0x86c	; 0x86c <buttenChanged>

				#ifdef DEBUG
					if(PINC & IO_PC2)
     1be:	9a 9b       	sbis	0x13, 2	; 19
     1c0:	1f c0       	rjmp	.+62     	; 0x200 <task_checkButtonChanged+0x5a>
					{
						sideHit = 2;
     1c2:	82 e0       	ldi	r24, 0x02	; 2
     1c4:	80 93 bf 01 	sts	0x01BF, r24
						timesPressed2++;
     1c8:	60 91 be 01 	lds	r22, 0x01BE
     1cc:	6f 5f       	subi	r22, 0xFF	; 255
     1ce:	60 93 be 01 	sts	0x01BE, r22
						writeButtonPressOnLCD(sideHit, timesPressed2);
     1d2:	70 e0       	ldi	r23, 0x00	; 0
     1d4:	82 e0       	ldi	r24, 0x02	; 2
     1d6:	90 e0       	ldi	r25, 0x00	; 0
     1d8:	0e 94 b0 00 	call	0x160	; 0x160 <writeButtonPressOnLCD>

						writeString("Button 2 pressed ");
     1dc:	83 e9       	ldi	r24, 0x93	; 147
     1de:	90 e0       	ldi	r25, 0x00	; 0
     1e0:	0e 94 80 08 	call	0x1100	; 0x1100 <writeString>
						writeInteger(timesPressed2, DEC);
     1e4:	80 91 be 01 	lds	r24, 0x01BE
     1e8:	6a e0       	ldi	r22, 0x0A	; 10
     1ea:	90 e0       	ldi	r25, 0x00	; 0
     1ec:	0e 94 b8 08 	call	0x1170	; 0x1170 <writeInteger>
						writeString(" times.");
     1f0:	85 ea       	ldi	r24, 0xA5	; 165
     1f2:	90 e0       	ldi	r25, 0x00	; 0
     1f4:	0e 94 80 08 	call	0x1100	; 0x1100 <writeString>
						writeString("\n");
     1f8:	81 e8       	ldi	r24, 0x81	; 129
     1fa:	91 e0       	ldi	r25, 0x01	; 1
     1fc:	0e 94 80 08 	call	0x1100	; 0x1100 <writeString>
					}
				#endif

				lastButton2State = PINC & IO_PC2;
     200:	83 b3       	in	r24, 0x13	; 19
     202:	84 70       	andi	r24, 0x04	; 4
     204:	90 e0       	ldi	r25, 0x00	; 0
     206:	90 93 c5 01 	sts	0x01C5, r25
     20a:	80 93 c4 01 	sts	0x01C4, r24
     20e:	08 95       	ret
			}	

			else if((PINC & IO_PC3) !=  lastButton3State)
     210:	23 b3       	in	r18, 0x13	; 19
     212:	28 70       	andi	r18, 0x08	; 8
     214:	30 e0       	ldi	r19, 0x00	; 0
     216:	80 91 c2 01 	lds	r24, 0x01C2
     21a:	90 91 c3 01 	lds	r25, 0x01C3
     21e:	28 17       	cp	r18, r24
     220:	39 07       	cpc	r19, r25
     222:	59 f1       	breq	.+86     	; 0x27a <task_checkButtonChanged+0xd4>
			{
				buttenChanged();
     224:	0e 94 36 04 	call	0x86c	; 0x86c <buttenChanged>

				#ifdef DEBUG
					if(PINC & IO_PC3)
     228:	9b 9b       	sbis	0x13, 3	; 19
     22a:	1f c0       	rjmp	.+62     	; 0x26a <task_checkButtonChanged+0xc4>
					{
						sideHit = 3;
     22c:	83 e0       	ldi	r24, 0x03	; 3
     22e:	80 93 bf 01 	sts	0x01BF, r24
						timesPressed3++;
     232:	60 91 bd 01 	lds	r22, 0x01BD
     236:	6f 5f       	subi	r22, 0xFF	; 255
     238:	60 93 bd 01 	sts	0x01BD, r22

						writeButtonPressOnLCD(sideHit, timesPressed3);
     23c:	70 e0       	ldi	r23, 0x00	; 0
     23e:	83 e0       	ldi	r24, 0x03	; 3
     240:	90 e0       	ldi	r25, 0x00	; 0
     242:	0e 94 b0 00 	call	0x160	; 0x160 <writeButtonPressOnLCD>

						writeString("Button 3 pressed ");
     246:	8d ea       	ldi	r24, 0xAD	; 173
     248:	90 e0       	ldi	r25, 0x00	; 0
     24a:	0e 94 80 08 	call	0x1100	; 0x1100 <writeString>
						writeInteger(timesPressed3, DEC);
     24e:	80 91 bd 01 	lds	r24, 0x01BD
     252:	6a e0       	ldi	r22, 0x0A	; 10
     254:	90 e0       	ldi	r25, 0x00	; 0
     256:	0e 94 b8 08 	call	0x1170	; 0x1170 <writeInteger>
						writeString(" times.");
     25a:	85 ea       	ldi	r24, 0xA5	; 165
     25c:	90 e0       	ldi	r25, 0x00	; 0
     25e:	0e 94 80 08 	call	0x1100	; 0x1100 <writeString>
						writeString("\n");
     262:	81 e8       	ldi	r24, 0x81	; 129
     264:	91 e0       	ldi	r25, 0x01	; 1
     266:	0e 94 80 08 	call	0x1100	; 0x1100 <writeString>
					}
					#endif

				lastButton3State = PINC & IO_PC3;
     26a:	83 b3       	in	r24, 0x13	; 19
     26c:	88 70       	andi	r24, 0x08	; 8
     26e:	90 e0       	ldi	r25, 0x00	; 0
     270:	90 93 c3 01 	sts	0x01C3, r25
     274:	80 93 c2 01 	sts	0x01C2, r24
     278:	08 95       	ret
			}	

			else if((PINC & IO_PC5) !=  lastButton5State)
     27a:	23 b3       	in	r18, 0x13	; 19
     27c:	20 72       	andi	r18, 0x20	; 32
     27e:	30 e0       	ldi	r19, 0x00	; 0
     280:	80 91 c0 01 	lds	r24, 0x01C0
     284:	90 91 c1 01 	lds	r25, 0x01C1
     288:	28 17       	cp	r18, r24
     28a:	39 07       	cpc	r19, r25
     28c:	51 f1       	breq	.+84     	; 0x2e2 <task_checkButtonChanged+0x13c>
			{
				buttenChanged();
     28e:	0e 94 36 04 	call	0x86c	; 0x86c <buttenChanged>

				#ifdef DEBUG
					if(PINC & IO_PC5)
     292:	9d 9b       	sbis	0x13, 5	; 19
     294:	1f c0       	rjmp	.+62     	; 0x2d4 <task_checkButtonChanged+0x12e>
					{
						sideHit = 5;
     296:	85 e0       	ldi	r24, 0x05	; 5
     298:	80 93 bf 01 	sts	0x01BF, r24
						timesPressed5++;
     29c:	60 91 bc 01 	lds	r22, 0x01BC
     2a0:	6f 5f       	subi	r22, 0xFF	; 255
     2a2:	60 93 bc 01 	sts	0x01BC, r22
						writeButtonPressOnLCD(sideHit, timesPressed5);
     2a6:	70 e0       	ldi	r23, 0x00	; 0
     2a8:	85 e0       	ldi	r24, 0x05	; 5
     2aa:	90 e0       	ldi	r25, 0x00	; 0
     2ac:	0e 94 b0 00 	call	0x160	; 0x160 <writeButtonPressOnLCD>
						writeString("Button 5 pressed ");
     2b0:	8f eb       	ldi	r24, 0xBF	; 191
     2b2:	90 e0       	ldi	r25, 0x00	; 0
     2b4:	0e 94 80 08 	call	0x1100	; 0x1100 <writeString>
						writeInteger(timesPressed5, DEC);
     2b8:	80 91 bc 01 	lds	r24, 0x01BC
     2bc:	6a e0       	ldi	r22, 0x0A	; 10
     2be:	90 e0       	ldi	r25, 0x00	; 0
     2c0:	0e 94 b8 08 	call	0x1170	; 0x1170 <writeInteger>
						writeString(" times.");
     2c4:	85 ea       	ldi	r24, 0xA5	; 165
     2c6:	90 e0       	ldi	r25, 0x00	; 0
     2c8:	0e 94 80 08 	call	0x1100	; 0x1100 <writeString>
						writeString("\n");
     2cc:	81 e8       	ldi	r24, 0x81	; 129
     2ce:	91 e0       	ldi	r25, 0x01	; 1
     2d0:	0e 94 80 08 	call	0x1100	; 0x1100 <writeString>
					}
				#endif

				lastButton5State = PINC & IO_PC5;
     2d4:	83 b3       	in	r24, 0x13	; 19
     2d6:	80 72       	andi	r24, 0x20	; 32
     2d8:	90 e0       	ldi	r25, 0x00	; 0
     2da:	90 93 c1 01 	sts	0x01C1, r25
     2de:	80 93 c0 01 	sts	0x01C0, r24
     2e2:	08 95       	ret

000002e4 <saveSpeedData>:
struct speedData sData;


void saveSpeedData(uint8_t leftSpeed, uint8_t speedRight) 
{
	sData.speedLeft = leftSpeed;
     2e4:	80 93 43 02 	sts	0x0243, r24
	sData.speedRight = speedRight;
     2e8:	60 93 44 02 	sts	0x0244, r22
     2ec:	e4 e2       	ldi	r30, 0x24	; 36
     2ee:	f2 e0       	ldi	r31, 0x02	; 2
	int arraySize = sizeof(sDataArray)/sizeof(sDataArray[0]);

	for (int i = 0; i < (arraySize - 1); i++)
	{
		sDataArray[i] = sDataArray[i + 1];
     2f0:	82 81       	ldd	r24, Z+2	; 0x02
     2f2:	93 81       	ldd	r25, Z+3	; 0x03
     2f4:	81 93       	st	Z+, r24
     2f6:	91 93       	st	Z+, r25
{
	sData.speedLeft = leftSpeed;
	sData.speedRight = speedRight;
	int arraySize = sizeof(sDataArray)/sizeof(sDataArray[0]);

	for (int i = 0; i < (arraySize - 1); i++)
     2f8:	82 e0       	ldi	r24, 0x02	; 2
     2fa:	e0 34       	cpi	r30, 0x40	; 64
     2fc:	f8 07       	cpc	r31, r24
     2fe:	c1 f7       	brne	.-16     	; 0x2f0 <saveSpeedData+0xc>
	{
		sDataArray[i] = sDataArray[i + 1];
	}

	sDataArray[arraySize - 1] = sData;
     300:	80 91 43 02 	lds	r24, 0x0243
     304:	90 91 44 02 	lds	r25, 0x0244
     308:	90 93 41 02 	sts	0x0241, r25
     30c:	80 93 40 02 	sts	0x0240, r24
     310:	08 95       	ret

00000312 <calculateAverageLeftSpeed>:

uint16_t calculateAverageLeftSpeed(void)
{
	uint16_t sum = 0;

	for(uint8_t i = 0; i < speedArraySize; i++)
     312:	20 91 60 00 	lds	r18, 0x0060
     316:	e4 e2       	ldi	r30, 0x24	; 36
     318:	f2 e0       	ldi	r31, 0x02	; 2
     31a:	60 e0       	ldi	r22, 0x00	; 0
	sDataArray[arraySize - 1] = sData;
}

uint16_t calculateAverageLeftSpeed(void)
{
	uint16_t sum = 0;
     31c:	80 e0       	ldi	r24, 0x00	; 0
     31e:	90 e0       	ldi	r25, 0x00	; 0

	for(uint8_t i = 0; i < speedArraySize; i++)
     320:	62 17       	cp	r22, r18
     322:	31 f0       	breq	.+12     	; 0x330 <calculateAverageLeftSpeed+0x1e>
	{
		sum += sDataArray[i].speedLeft;
     324:	30 81       	ld	r19, Z
     326:	83 0f       	add	r24, r19
     328:	91 1d       	adc	r25, r1

uint16_t calculateAverageLeftSpeed(void)
{
	uint16_t sum = 0;

	for(uint8_t i = 0; i < speedArraySize; i++)
     32a:	6f 5f       	subi	r22, 0xFF	; 255
     32c:	32 96       	adiw	r30, 0x02	; 2
     32e:	f8 cf       	rjmp	.-16     	; 0x320 <calculateAverageLeftSpeed+0xe>
	{
		sum += sDataArray[i].speedLeft;
	}

	uint16_t average = sum/speedArraySize;
     330:	70 e0       	ldi	r23, 0x00	; 0
     332:	0e 94 79 10 	call	0x20f2	; 0x20f2 <__udivmodhi4>
     336:	cb 01       	movw	r24, r22

	return average;
}
     338:	08 95       	ret

0000033a <calculateAverageRightSpeed>:

uint16_t calculateAverageRightSpeed(void)
{
	uint16_t sum = 0;

	for(uint8_t i = 0; i < speedArraySize; i++)
     33a:	20 91 60 00 	lds	r18, 0x0060
     33e:	e5 e2       	ldi	r30, 0x25	; 37
     340:	f2 e0       	ldi	r31, 0x02	; 2
     342:	60 e0       	ldi	r22, 0x00	; 0
	return average;
}

uint16_t calculateAverageRightSpeed(void)
{
	uint16_t sum = 0;
     344:	80 e0       	ldi	r24, 0x00	; 0
     346:	90 e0       	ldi	r25, 0x00	; 0

	for(uint8_t i = 0; i < speedArraySize; i++)
     348:	62 17       	cp	r22, r18
     34a:	31 f0       	breq	.+12     	; 0x358 <calculateAverageRightSpeed+0x1e>
	{
		sum += sDataArray[i].speedRight;
     34c:	30 81       	ld	r19, Z
     34e:	83 0f       	add	r24, r19
     350:	91 1d       	adc	r25, r1

uint16_t calculateAverageRightSpeed(void)
{
	uint16_t sum = 0;

	for(uint8_t i = 0; i < speedArraySize; i++)
     352:	6f 5f       	subi	r22, 0xFF	; 255
     354:	32 96       	adiw	r30, 0x02	; 2
     356:	f8 cf       	rjmp	.-16     	; 0x348 <calculateAverageRightSpeed+0xe>
	{
		sum += sDataArray[i].speedRight;
	}

	uint16_t average = sum/speedArraySize;
     358:	70 e0       	ldi	r23, 0x00	; 0
     35a:	0e 94 79 10 	call	0x20f2	; 0x20f2 <__udivmodhi4>
     35e:	cb 01       	movw	r24, r22
	
	return average;
}
     360:	08 95       	ret

00000362 <writeSpeed>:

void writeSpeed(void)
{
     362:	ff 92       	push	r15
     364:	0f 93       	push	r16
     366:	1f 93       	push	r17
     368:	cf 93       	push	r28
     36a:	df 93       	push	r29

	writeString("Index ");
     36c:	81 ed       	ldi	r24, 0xD1	; 209
     36e:	90 e0       	ldi	r25, 0x00	; 0
     370:	0e 94 80 08 	call	0x1100	; 0x1100 <writeString>
	writeInteger((speedArrayIndexToWriteTo -1), DEC);
     374:	80 91 c7 01 	lds	r24, 0x01C7
     378:	90 e0       	ldi	r25, 0x00	; 0
     37a:	6a e0       	ldi	r22, 0x0A	; 10
     37c:	01 97       	sbiw	r24, 0x01	; 1
     37e:	0e 94 b8 08 	call	0x1170	; 0x1170 <writeInteger>
	writeString(" changed.");
     382:	88 ed       	ldi	r24, 0xD8	; 216
     384:	90 e0       	ldi	r25, 0x00	; 0
     386:	0e 94 80 08 	call	0x1100	; 0x1100 <writeString>
	writeChar('\n');
     38a:	8a e0       	ldi	r24, 0x0A	; 10
     38c:	0e 94 7c 08 	call	0x10f8	; 0x10f8 <writeChar>

	for(uint8_t index = 0; index < speedArraySize; index++)
     390:	f1 2c       	mov	r15, r1
     392:	80 91 60 00 	lds	r24, 0x0060
     396:	f8 16       	cp	r15, r24
     398:	70 f5       	brcc	.+92     	; 0x3f6 <writeSpeed+0x94>
	{	
		writeString("Speed ");
     39a:	8b ee       	ldi	r24, 0xEB	; 235
     39c:	90 e0       	ldi	r25, 0x00	; 0
     39e:	0e 94 80 08 	call	0x1100	; 0x1100 <writeString>
		writeInteger(index, DEC);
     3a2:	0f 2d       	mov	r16, r15
     3a4:	10 e0       	ldi	r17, 0x00	; 0
     3a6:	6a e0       	ldi	r22, 0x0A	; 10
     3a8:	c8 01       	movw	r24, r16
     3aa:	0e 94 b8 08 	call	0x1170	; 0x1170 <writeInteger>
		writeString(" left: ");
     3ae:	82 ee       	ldi	r24, 0xE2	; 226
     3b0:	90 e0       	ldi	r25, 0x00	; 0
     3b2:	0e 94 80 08 	call	0x1100	; 0x1100 <writeString>
		writeInteger(sDataArray[index].speedLeft, DEC);
     3b6:	e8 01       	movw	r28, r16
     3b8:	cc 0f       	add	r28, r28
     3ba:	dd 1f       	adc	r29, r29
     3bc:	cc 5d       	subi	r28, 0xDC	; 220
     3be:	dd 4f       	sbci	r29, 0xFD	; 253
     3c0:	88 81       	ld	r24, Y
     3c2:	6a e0       	ldi	r22, 0x0A	; 10
     3c4:	90 e0       	ldi	r25, 0x00	; 0
     3c6:	0e 94 b8 08 	call	0x1170	; 0x1170 <writeInteger>

		writeString(" Speed ");
     3ca:	8a ee       	ldi	r24, 0xEA	; 234
     3cc:	90 e0       	ldi	r25, 0x00	; 0
     3ce:	0e 94 80 08 	call	0x1100	; 0x1100 <writeString>
		writeInteger(index, DEC);
     3d2:	6a e0       	ldi	r22, 0x0A	; 10
     3d4:	c8 01       	movw	r24, r16
     3d6:	0e 94 b8 08 	call	0x1170	; 0x1170 <writeInteger>
		writeString(" right: ");
     3da:	82 ef       	ldi	r24, 0xF2	; 242
     3dc:	90 e0       	ldi	r25, 0x00	; 0
     3de:	0e 94 80 08 	call	0x1100	; 0x1100 <writeString>
		writeInteger(sDataArray[index].speedRight, DEC);
     3e2:	89 81       	ldd	r24, Y+1	; 0x01
     3e4:	6a e0       	ldi	r22, 0x0A	; 10
     3e6:	90 e0       	ldi	r25, 0x00	; 0
     3e8:	0e 94 b8 08 	call	0x1170	; 0x1170 <writeInteger>
		writeChar('\n');
     3ec:	8a e0       	ldi	r24, 0x0A	; 10
     3ee:	0e 94 7c 08 	call	0x10f8	; 0x10f8 <writeChar>
	writeString("Index ");
	writeInteger((speedArrayIndexToWriteTo -1), DEC);
	writeString(" changed.");
	writeChar('\n');

	for(uint8_t index = 0; index < speedArraySize; index++)
     3f2:	f3 94       	inc	r15
     3f4:	ce cf       	rjmp	.-100    	; 0x392 <writeSpeed+0x30>
		writeString(" right: ");
		writeInteger(sDataArray[index].speedRight, DEC);
		writeChar('\n');
	}

	writeChar('\n');
     3f6:	8a e0       	ldi	r24, 0x0A	; 10
     3f8:	0e 94 7c 08 	call	0x10f8	; 0x10f8 <writeChar>
	writeChar('\n');
     3fc:	8a e0       	ldi	r24, 0x0A	; 10
}
     3fe:	df 91       	pop	r29
     400:	cf 91       	pop	r28
     402:	1f 91       	pop	r17
     404:	0f 91       	pop	r16
     406:	ff 90       	pop	r15
		writeInteger(sDataArray[index].speedRight, DEC);
		writeChar('\n');
	}

	writeChar('\n');
	writeChar('\n');
     408:	0c 94 7c 08 	jmp	0x10f8	; 0x10f8 <writeChar>

0000040c <initMPU9250>:

bool doneReadingGyro = false;

void initMPU9250(void)
{
	I2CTWI_transmit2Bytes(MPU9250_WRITE_ADDRESS, 0x4B, 0);
     40c:	40 e0       	ldi	r20, 0x00	; 0
     40e:	6b e4       	ldi	r22, 0x4B	; 75
     410:	80 ed       	ldi	r24, 0xD0	; 208
     412:	0c 94 6f 0b 	jmp	0x16de	; 0x16de <I2CTWI_transmit2Bytes>

00000416 <getGyroData>:
}

void getGyroData(gyroData* gData) 
{
     416:	cf 93       	push	r28
     418:	df 93       	push	r29
     41a:	ec 01       	movw	r28, r24
	// Read gryo data from the X-ax
	I2CTWI_transmitByte(MPU9250_WRITE_ADDRESS, 0x43);
     41c:	63 e4       	ldi	r22, 0x43	; 67
     41e:	80 ed       	ldi	r24, 0xD0	; 208
     420:	0e 94 51 0b 	call	0x16a2	; 0x16a2 <I2CTWI_transmitByte>
	gData->GyroX_H = I2CTWI_readByte(MPU9250_READ_ADDRESS);
     424:	81 ed       	ldi	r24, 0xD1	; 209
     426:	0e 94 24 0b 	call	0x1648	; 0x1648 <I2CTWI_readByte>
     42a:	88 83       	st	Y, r24
	I2CTWI_transmitByte(MPU9250_WRITE_ADDRESS, 0x44);
     42c:	64 e4       	ldi	r22, 0x44	; 68
     42e:	80 ed       	ldi	r24, 0xD0	; 208
     430:	0e 94 51 0b 	call	0x16a2	; 0x16a2 <I2CTWI_transmitByte>
	gData->GyroX_L = I2CTWI_readByte(MPU9250_READ_ADDRESS);
     434:	81 ed       	ldi	r24, 0xD1	; 209
     436:	0e 94 24 0b 	call	0x1648	; 0x1648 <I2CTWI_readByte>
     43a:	89 83       	std	Y+1, r24	; 0x01

	// Read gryo data from the Y-ax
	I2CTWI_transmitByte(MPU9250_WRITE_ADDRESS, 0x45);
     43c:	65 e4       	ldi	r22, 0x45	; 69
     43e:	80 ed       	ldi	r24, 0xD0	; 208
     440:	0e 94 51 0b 	call	0x16a2	; 0x16a2 <I2CTWI_transmitByte>
	gData->GyroY_H = I2CTWI_readByte(MPU9250_READ_ADDRESS);
     444:	81 ed       	ldi	r24, 0xD1	; 209
     446:	0e 94 24 0b 	call	0x1648	; 0x1648 <I2CTWI_readByte>
     44a:	8a 83       	std	Y+2, r24	; 0x02
	I2CTWI_transmitByte(MPU9250_WRITE_ADDRESS, 0x46);
     44c:	66 e4       	ldi	r22, 0x46	; 70
     44e:	80 ed       	ldi	r24, 0xD0	; 208
     450:	0e 94 51 0b 	call	0x16a2	; 0x16a2 <I2CTWI_transmitByte>
	gData->GyroY_L = I2CTWI_readByte(MPU9250_READ_ADDRESS);
     454:	81 ed       	ldi	r24, 0xD1	; 209
     456:	0e 94 24 0b 	call	0x1648	; 0x1648 <I2CTWI_readByte>
     45a:	8b 83       	std	Y+3, r24	; 0x03

	// Read gryo data from the Z-ax
	I2CTWI_transmitByte(MPU9250_WRITE_ADDRESS, 0x47);
     45c:	67 e4       	ldi	r22, 0x47	; 71
     45e:	80 ed       	ldi	r24, 0xD0	; 208
     460:	0e 94 51 0b 	call	0x16a2	; 0x16a2 <I2CTWI_transmitByte>
	gData->GyroZ_H = I2CTWI_readByte(MPU9250_READ_ADDRESS);
     464:	81 ed       	ldi	r24, 0xD1	; 209
     466:	0e 94 24 0b 	call	0x1648	; 0x1648 <I2CTWI_readByte>
     46a:	8c 83       	std	Y+4, r24	; 0x04
	I2CTWI_transmitByte(MPU9250_WRITE_ADDRESS, 0x48);
     46c:	68 e4       	ldi	r22, 0x48	; 72
     46e:	80 ed       	ldi	r24, 0xD0	; 208
     470:	0e 94 51 0b 	call	0x16a2	; 0x16a2 <I2CTWI_transmitByte>
	gData->GyroZ_L = I2CTWI_readByte(MPU9250_READ_ADDRESS);
     474:	81 ed       	ldi	r24, 0xD1	; 209
     476:	0e 94 24 0b 	call	0x1648	; 0x1648 <I2CTWI_readByte>
     47a:	8d 83       	std	Y+5, r24	; 0x05

	doneReadingGyro = true;
     47c:	81 e0       	ldi	r24, 0x01	; 1
     47e:	80 93 c8 01 	sts	0x01C8, r24
}
     482:	df 91       	pop	r29
     484:	cf 91       	pop	r28
     486:	08 95       	ret

00000488 <saveGyroData>:

void saveGyroData(gyroData gData)
{
     488:	cf 93       	push	r28
     48a:	df 93       	push	r29
     48c:	00 d0       	rcall	.+0      	; 0x48e <saveGyroData+0x6>
     48e:	00 d0       	rcall	.+0      	; 0x490 <saveGyroData+0x8>
     490:	00 d0       	rcall	.+0      	; 0x492 <saveGyroData+0xa>
     492:	cd b7       	in	r28, 0x3d	; 61
     494:	de b7       	in	r29, 0x3e	; 62
     496:	49 83       	std	Y+1, r20	; 0x01
     498:	5a 83       	std	Y+2, r21	; 0x02
     49a:	6b 83       	std	Y+3, r22	; 0x03
     49c:	7c 83       	std	Y+4, r23	; 0x04
     49e:	8d 83       	std	Y+5, r24	; 0x05
     4a0:	9e 83       	std	Y+6, r25	; 0x06

	startStopwatch1();
     4a2:	80 91 b9 02 	lds	r24, 0x02B9
     4a6:	81 60       	ori	r24, 0x01	; 1
     4a8:	80 93 b9 02 	sts	0x02B9, r24
	getGyroData(&gData);
     4ac:	ce 01       	movw	r24, r28
     4ae:	01 96       	adiw	r24, 0x01	; 1
     4b0:	0e 94 0b 02 	call	0x416	; 0x416 <getGyroData>
	gDataArray[gyroArrayIndexToWriteTo] = gData;
     4b4:	80 91 c9 01 	lds	r24, 0x01C9
     4b8:	96 e0       	ldi	r25, 0x06	; 6
     4ba:	98 9f       	mul	r25, r24
     4bc:	d0 01       	movw	r26, r0
     4be:	11 24       	eor	r1, r1
     4c0:	ab 5b       	subi	r26, 0xBB	; 187
     4c2:	bd 4f       	sbci	r27, 0xFD	; 253
     4c4:	fe 01       	movw	r30, r28
     4c6:	31 96       	adiw	r30, 0x01	; 1
     4c8:	01 90       	ld	r0, Z+
     4ca:	0d 92       	st	X+, r0
     4cc:	9a 95       	dec	r25
     4ce:	e1 f7       	brne	.-8      	; 0x4c8 <saveGyroData+0x40>
	gyroArrayIndexToWriteTo++;
     4d0:	8f 5f       	subi	r24, 0xFF	; 255
     4d2:	80 93 c9 01 	sts	0x01C9, r24


	if(gyroArrayIndexToWriteTo == gyroArraySize)
     4d6:	90 91 61 00 	lds	r25, 0x0061
     4da:	89 13       	cpse	r24, r25
     4dc:	02 c0       	rjmp	.+4      	; 0x4e2 <saveGyroData+0x5a>
	{
		gyroArrayIndexToWriteTo = 0;
     4de:	10 92 c9 01 	sts	0x01C9, r1
	}

	setStopwatch1(0);
     4e2:	10 92 bb 02 	sts	0x02BB, r1
     4e6:	10 92 ba 02 	sts	0x02BA, r1

	if(doneReadingGyro)
     4ea:	80 91 c8 01 	lds	r24, 0x01C8
     4ee:	88 23       	and	r24, r24
     4f0:	e9 f0       	breq	.+58     	; 0x52c <saveGyroData+0xa4>
	{
		getGyroData(&gData);
     4f2:	ce 01       	movw	r24, r28
     4f4:	01 96       	adiw	r24, 0x01	; 1
     4f6:	0e 94 0b 02 	call	0x416	; 0x416 <getGyroData>
     4fa:	8b e4       	ldi	r24, 0x4B	; 75
     4fc:	92 e0       	ldi	r25, 0x02	; 2

		int arraySize = sizeof(gDataArray)/sizeof(gDataArray[0]);

		for (int i = 0; i < (arraySize - 1); i++)
		{
			gDataArray[i] = gDataArray[i + 1];
     4fe:	26 e0       	ldi	r18, 0x06	; 6
     500:	dc 01       	movw	r26, r24
     502:	16 97       	sbiw	r26, 0x06	; 6
     504:	fc 01       	movw	r30, r24
     506:	32 2f       	mov	r19, r18
     508:	01 90       	ld	r0, Z+
     50a:	0d 92       	st	X+, r0
     50c:	3a 95       	dec	r19
     50e:	e1 f7       	brne	.-8      	; 0x508 <saveGyroData+0x80>
     510:	06 96       	adiw	r24, 0x06	; 6
	{
		getGyroData(&gData);

		int arraySize = sizeof(gDataArray)/sizeof(gDataArray[0]);

		for (int i = 0; i < (arraySize - 1); i++)
     512:	32 e0       	ldi	r19, 0x02	; 2
     514:	8f 39       	cpi	r24, 0x9F	; 159
     516:	93 07       	cpc	r25, r19
     518:	99 f7       	brne	.-26     	; 0x500 <saveGyroData+0x78>
		{
			gDataArray[i] = gDataArray[i + 1];
		}

		gDataArray[arraySize - 1] = gData;
     51a:	86 e0       	ldi	r24, 0x06	; 6
     51c:	fe 01       	movw	r30, r28
     51e:	31 96       	adiw	r30, 0x01	; 1
     520:	a9 e9       	ldi	r26, 0x99	; 153
     522:	b2 e0       	ldi	r27, 0x02	; 2
     524:	01 90       	ld	r0, Z+
     526:	0d 92       	st	X+, r0
     528:	8a 95       	dec	r24
     52a:	e1 f7       	brne	.-8      	; 0x524 <saveGyroData+0x9c>
	}	
	
	doneReadingGyro = false;
     52c:	10 92 c8 01 	sts	0x01C8, r1
}
     530:	26 96       	adiw	r28, 0x06	; 6
     532:	0f b6       	in	r0, 0x3f	; 63
     534:	f8 94       	cli
     536:	de bf       	out	0x3e, r29	; 62
     538:	0f be       	out	0x3f, r0	; 63
     53a:	cd bf       	out	0x3d, r28	; 61
     53c:	df 91       	pop	r29
     53e:	cf 91       	pop	r28
     540:	08 95       	ret

00000542 <writeGyro>:

void writeGyro(void)
{
     542:	ef 92       	push	r14
     544:	ff 92       	push	r15
     546:	0f 93       	push	r16
     548:	1f 93       	push	r17
     54a:	cf 93       	push	r28
     54c:	df 93       	push	r29

	writeString("Index ");
     54e:	81 ed       	ldi	r24, 0xD1	; 209
     550:	90 e0       	ldi	r25, 0x00	; 0
     552:	0e 94 80 08 	call	0x1100	; 0x1100 <writeString>
	if(gyroArrayIndexToWriteTo != 0)
     556:	80 91 c9 01 	lds	r24, 0x01C9
     55a:	88 23       	and	r24, r24
     55c:	21 f0       	breq	.+8      	; 0x566 <writeGyro+0x24>
	{
		writeInteger((gyroArrayIndexToWriteTo -1), DEC);
     55e:	90 e0       	ldi	r25, 0x00	; 0
     560:	6a e0       	ldi	r22, 0x0A	; 10
     562:	01 97       	sbiw	r24, 0x01	; 1
     564:	03 c0       	rjmp	.+6      	; 0x56c <writeGyro+0x2a>
	}
	else
	{
		writeInteger(0, DEC);
     566:	6a e0       	ldi	r22, 0x0A	; 10
     568:	80 e0       	ldi	r24, 0x00	; 0
     56a:	90 e0       	ldi	r25, 0x00	; 0
     56c:	0e 94 b8 08 	call	0x1170	; 0x1170 <writeInteger>
	}
	writeString(" changed.");
     570:	88 ed       	ldi	r24, 0xD8	; 216
     572:	90 e0       	ldi	r25, 0x00	; 0
     574:	0e 94 80 08 	call	0x1100	; 0x1100 <writeString>
	writeChar('\n');
     578:	8a e0       	ldi	r24, 0x0A	; 10
     57a:	0e 94 7c 08 	call	0x10f8	; 0x10f8 <writeChar>

	for(uint8_t index = 0; index < gyroArraySize; index++)
     57e:	e1 2c       	mov	r14, r1
	{	
		writeString("Gyro: ");
		writeInteger(index, DEC);
		writeString(" X: ");
		writeInteger(((gDataArray[index].GyroX_H << 8) | gDataArray[index].GyroX_L), DEC);
     580:	56 e0       	ldi	r21, 0x06	; 6
     582:	f5 2e       	mov	r15, r21
		writeInteger(0, DEC);
	}
	writeString(" changed.");
	writeChar('\n');

	for(uint8_t index = 0; index < gyroArraySize; index++)
     584:	80 91 61 00 	lds	r24, 0x0061
     588:	e8 16       	cp	r14, r24
     58a:	08 f0       	brcs	.+2      	; 0x58e <writeGyro+0x4c>
     58c:	5f c0       	rjmp	.+190    	; 0x64c <writeGyro+0x10a>
	{	
		writeString("Gyro: ");
     58e:	81 e0       	ldi	r24, 0x01	; 1
     590:	91 e0       	ldi	r25, 0x01	; 1
     592:	0e 94 80 08 	call	0x1100	; 0x1100 <writeString>
		writeInteger(index, DEC);
     596:	0e 2d       	mov	r16, r14
     598:	10 e0       	ldi	r17, 0x00	; 0
     59a:	6a e0       	ldi	r22, 0x0A	; 10
     59c:	c8 01       	movw	r24, r16
     59e:	0e 94 b8 08 	call	0x1170	; 0x1170 <writeInteger>
		writeString(" X: ");
     5a2:	8b ef       	ldi	r24, 0xFB	; 251
     5a4:	90 e0       	ldi	r25, 0x00	; 0
     5a6:	0e 94 80 08 	call	0x1100	; 0x1100 <writeString>
		writeInteger(((gDataArray[index].GyroX_H << 8) | gDataArray[index].GyroX_L), DEC);
     5aa:	f0 9e       	mul	r15, r16
     5ac:	e0 01       	movw	r28, r0
     5ae:	f1 9e       	mul	r15, r17
     5b0:	d0 0d       	add	r29, r0
     5b2:	11 24       	eor	r1, r1
     5b4:	cb 5b       	subi	r28, 0xBB	; 187
     5b6:	dd 4f       	sbci	r29, 0xFD	; 253
     5b8:	28 81       	ld	r18, Y
     5ba:	33 27       	eor	r19, r19
     5bc:	27 fd       	sbrc	r18, 7
     5be:	30 95       	com	r19
     5c0:	32 2f       	mov	r19, r18
     5c2:	22 27       	eor	r18, r18
     5c4:	89 81       	ldd	r24, Y+1	; 0x01
     5c6:	99 27       	eor	r25, r25
     5c8:	87 fd       	sbrc	r24, 7
     5ca:	90 95       	com	r25
     5cc:	6a e0       	ldi	r22, 0x0A	; 10
     5ce:	82 2b       	or	r24, r18
     5d0:	93 2b       	or	r25, r19
     5d2:	0e 94 b8 08 	call	0x1170	; 0x1170 <writeInteger>

		writeString(" Gyro: ");
     5d6:	80 e0       	ldi	r24, 0x00	; 0
     5d8:	91 e0       	ldi	r25, 0x01	; 1
     5da:	0e 94 80 08 	call	0x1100	; 0x1100 <writeString>
		writeInteger(index, DEC);
     5de:	6a e0       	ldi	r22, 0x0A	; 10
     5e0:	c8 01       	movw	r24, r16
     5e2:	0e 94 b8 08 	call	0x1170	; 0x1170 <writeInteger>
		writeString(" Y: ");
     5e6:	88 e0       	ldi	r24, 0x08	; 8
     5e8:	91 e0       	ldi	r25, 0x01	; 1
     5ea:	0e 94 80 08 	call	0x1100	; 0x1100 <writeString>
		writeInteger(((gDataArray[index].GyroY_H << 8) | gDataArray[index].GyroY_L), DEC);
     5ee:	2a 81       	ldd	r18, Y+2	; 0x02
     5f0:	33 27       	eor	r19, r19
     5f2:	27 fd       	sbrc	r18, 7
     5f4:	30 95       	com	r19
     5f6:	32 2f       	mov	r19, r18
     5f8:	22 27       	eor	r18, r18
     5fa:	8b 81       	ldd	r24, Y+3	; 0x03
     5fc:	99 27       	eor	r25, r25
     5fe:	87 fd       	sbrc	r24, 7
     600:	90 95       	com	r25
     602:	6a e0       	ldi	r22, 0x0A	; 10
     604:	82 2b       	or	r24, r18
     606:	93 2b       	or	r25, r19
     608:	0e 94 b8 08 	call	0x1170	; 0x1170 <writeInteger>

		writeString(" Gyro: ");
     60c:	80 e0       	ldi	r24, 0x00	; 0
     60e:	91 e0       	ldi	r25, 0x01	; 1
     610:	0e 94 80 08 	call	0x1100	; 0x1100 <writeString>
		writeInteger(index, DEC);
     614:	6a e0       	ldi	r22, 0x0A	; 10
     616:	c8 01       	movw	r24, r16
     618:	0e 94 b8 08 	call	0x1170	; 0x1170 <writeInteger>
		writeString(" Z: ");
     61c:	8d e0       	ldi	r24, 0x0D	; 13
     61e:	91 e0       	ldi	r25, 0x01	; 1
     620:	0e 94 80 08 	call	0x1100	; 0x1100 <writeString>
		writeInteger(((gDataArray[index].GyroZ_H << 8) | gDataArray[index].GyroZ_L), DEC);
     624:	2c 81       	ldd	r18, Y+4	; 0x04
     626:	33 27       	eor	r19, r19
     628:	27 fd       	sbrc	r18, 7
     62a:	30 95       	com	r19
     62c:	32 2f       	mov	r19, r18
     62e:	22 27       	eor	r18, r18
     630:	8d 81       	ldd	r24, Y+5	; 0x05
     632:	99 27       	eor	r25, r25
     634:	87 fd       	sbrc	r24, 7
     636:	90 95       	com	r25
     638:	6a e0       	ldi	r22, 0x0A	; 10
     63a:	82 2b       	or	r24, r18
     63c:	93 2b       	or	r25, r19
     63e:	0e 94 b8 08 	call	0x1170	; 0x1170 <writeInteger>

		writeChar('\n');
     642:	8a e0       	ldi	r24, 0x0A	; 10
     644:	0e 94 7c 08 	call	0x10f8	; 0x10f8 <writeChar>
		writeInteger(0, DEC);
	}
	writeString(" changed.");
	writeChar('\n');

	for(uint8_t index = 0; index < gyroArraySize; index++)
     648:	e3 94       	inc	r14
     64a:	9c cf       	rjmp	.-200    	; 0x584 <writeGyro+0x42>
		writeInteger(((gDataArray[index].GyroZ_H << 8) | gDataArray[index].GyroZ_L), DEC);

		writeChar('\n');
	}

	writeChar('\n');
     64c:	8a e0       	ldi	r24, 0x0A	; 10
     64e:	0e 94 7c 08 	call	0x10f8	; 0x10f8 <writeChar>
	writeChar('\n');
     652:	8a e0       	ldi	r24, 0x0A	; 10
     654:	df 91       	pop	r29
     656:	cf 91       	pop	r28
     658:	1f 91       	pop	r17
     65a:	0f 91       	pop	r16
     65c:	ff 90       	pop	r15
     65e:	ef 90       	pop	r14

		writeChar('\n');
	}

	writeChar('\n');
	writeChar('\n');
     660:	0c 94 7c 08 	jmp	0x10f8	; 0x10f8 <writeChar>

00000664 <assignCrashInfo>:
uint8_t pressed = false;
uint8_t crashInfoWasSend = false;
uint8_t hitSide;

int assignCrashInfo(void)
{
     664:	af 92       	push	r10
     666:	bf 92       	push	r11
     668:	cf 92       	push	r12
     66a:	df 92       	push	r13
     66c:	ef 92       	push	r14
     66e:	ff 92       	push	r15
     670:	0f 93       	push	r16
     672:	1f 93       	push	r17
     674:	cf 93       	push	r28
     676:	df 93       	push	r29
	uint16_t avergeLeftSpeed = calculateAverageLeftSpeed();
     678:	0e 94 89 01 	call	0x312	; 0x312 <calculateAverageLeftSpeed>
     67c:	8c 01       	movw	r16, r24
	uint16_t avergeRightSpeed = calculateAverageRightSpeed();
     67e:	0e 94 9d 01 	call	0x33a	; 0x33a <calculateAverageRightSpeed>
     682:	5c 01       	movw	r10, r24
	uint16_t averageSpeed = (avergeLeftSpeed + avergeRightSpeed)/2;
     684:	ec 01       	movw	r28, r24
     686:	c0 0f       	add	r28, r16
     688:	d1 1f       	adc	r29, r17
     68a:	d6 95       	lsr	r29
     68c:	c7 95       	ror	r28
	double speedCMPerSecond = averageSpeed * 5 * 0.025; // One speed point is equal to 5 segments per second.
     68e:	85 e0       	ldi	r24, 0x05	; 5
     690:	8c 9f       	mul	r24, r28
     692:	b0 01       	movw	r22, r0
     694:	8d 9f       	mul	r24, r29
     696:	70 0d       	add	r23, r0
     698:	11 24       	eor	r1, r1
     69a:	80 e0       	ldi	r24, 0x00	; 0
     69c:	90 e0       	ldi	r25, 0x00	; 0
     69e:	0e 94 88 0f 	call	0x1f10	; 0x1f10 <__floatunsisf>
     6a2:	2d ec       	ldi	r18, 0xCD	; 205
     6a4:	3c ec       	ldi	r19, 0xCC	; 204
     6a6:	4c ec       	ldi	r20, 0xCC	; 204
     6a8:	5c e3       	ldi	r21, 0x3C	; 60
     6aa:	0e 94 ee 0f 	call	0x1fdc	; 0x1fdc <__mulsf3>
     6ae:	6b 01       	movw	r12, r22
     6b0:	7c 01       	movw	r14, r24
													    // Each segment is +/- 0.25mm. So by 
														// multiplying is by 0.025cm you get the 
														// amount of cm/s.

	#ifdef SERIAL_DEBUG
		writeString("Average left speed: ");
     6b2:	82 e1       	ldi	r24, 0x12	; 18
     6b4:	91 e0       	ldi	r25, 0x01	; 1
     6b6:	0e 94 80 08 	call	0x1100	; 0x1100 <writeString>
		writeInteger(avergeLeftSpeed, DEC);
     6ba:	6a e0       	ldi	r22, 0x0A	; 10
     6bc:	c8 01       	movw	r24, r16
     6be:	0e 94 b8 08 	call	0x1170	; 0x1170 <writeInteger>
		writeChar('\n');
     6c2:	8a e0       	ldi	r24, 0x0A	; 10
     6c4:	0e 94 7c 08 	call	0x10f8	; 0x10f8 <writeChar>
		writeString("Average right speed: ");
     6c8:	87 e2       	ldi	r24, 0x27	; 39
     6ca:	91 e0       	ldi	r25, 0x01	; 1
     6cc:	0e 94 80 08 	call	0x1100	; 0x1100 <writeString>
		writeInteger(avergeRightSpeed, DEC);
     6d0:	6a e0       	ldi	r22, 0x0A	; 10
     6d2:	c5 01       	movw	r24, r10
     6d4:	0e 94 b8 08 	call	0x1170	; 0x1170 <writeInteger>
		writeChar('\n');
     6d8:	8a e0       	ldi	r24, 0x0A	; 10
     6da:	0e 94 7c 08 	call	0x10f8	; 0x10f8 <writeChar>
		writeString("Average speed: ");
     6de:	8d e3       	ldi	r24, 0x3D	; 61
     6e0:	91 e0       	ldi	r25, 0x01	; 1
     6e2:	0e 94 80 08 	call	0x1100	; 0x1100 <writeString>
		writeInteger(averageSpeed, DEC);
     6e6:	6a e0       	ldi	r22, 0x0A	; 10
     6e8:	ce 01       	movw	r24, r28
     6ea:	0e 94 b8 08 	call	0x1170	; 0x1170 <writeInteger>
		writeChar('\n');
     6ee:	8a e0       	ldi	r24, 0x0A	; 10
     6f0:	0e 94 7c 08 	call	0x10f8	; 0x10f8 <writeChar>
		writeString("Average: ");
     6f4:	8d e4       	ldi	r24, 0x4D	; 77
     6f6:	91 e0       	ldi	r25, 0x01	; 1
     6f8:	0e 94 80 08 	call	0x1100	; 0x1100 <writeString>
		writeInteger(speedCMPerSecond, DEC);
     6fc:	c7 01       	movw	r24, r14
     6fe:	b6 01       	movw	r22, r12
     700:	0e 94 57 0f 	call	0x1eae	; 0x1eae <__fixsfsi>
     704:	dc 01       	movw	r26, r24
     706:	cb 01       	movw	r24, r22
     708:	6a e0       	ldi	r22, 0x0A	; 10
     70a:	0e 94 b8 08 	call	0x1170	; 0x1170 <writeInteger>
		writeString(" cm/s");
     70e:	87 e5       	ldi	r24, 0x57	; 87
     710:	91 e0       	ldi	r25, 0x01	; 1
     712:	0e 94 80 08 	call	0x1100	; 0x1100 <writeString>
		writeChar('\n');
     716:	8a e0       	ldi	r24, 0x0A	; 10
     718:	0e 94 7c 08 	call	0x10f8	; 0x10f8 <writeChar>
		writeChar('\n');
     71c:	8a e0       	ldi	r24, 0x0A	; 10
     71e:	0e 94 7c 08 	call	0x10f8	; 0x10f8 <writeChar>

		writeString("GyX: ");
     722:	8d e5       	ldi	r24, 0x5D	; 93
     724:	91 e0       	ldi	r25, 0x01	; 1
     726:	0e 94 80 08 	call	0x1100	; 0x1100 <writeString>
		writeInteger(((gDataArray[14].GyroX_H << 8) | gDataArray[14].GyroX_L), DEC);
     72a:	20 91 99 02 	lds	r18, 0x0299
     72e:	33 27       	eor	r19, r19
     730:	27 fd       	sbrc	r18, 7
     732:	30 95       	com	r19
     734:	32 2f       	mov	r19, r18
     736:	22 27       	eor	r18, r18
     738:	80 91 9a 02 	lds	r24, 0x029A
     73c:	99 27       	eor	r25, r25
     73e:	87 fd       	sbrc	r24, 7
     740:	90 95       	com	r25
     742:	6a e0       	ldi	r22, 0x0A	; 10
     744:	82 2b       	or	r24, r18
     746:	93 2b       	or	r25, r19
     748:	0e 94 b8 08 	call	0x1170	; 0x1170 <writeInteger>
		writeChar('\n');
     74c:	8a e0       	ldi	r24, 0x0A	; 10
     74e:	0e 94 7c 08 	call	0x10f8	; 0x10f8 <writeChar>
		writeChar('\n');
     752:	8a e0       	ldi	r24, 0x0A	; 10
     754:	0e 94 7c 08 	call	0x10f8	; 0x10f8 <writeChar>
		writeString("GyY: ");
     758:	83 e6       	ldi	r24, 0x63	; 99
     75a:	91 e0       	ldi	r25, 0x01	; 1
     75c:	0e 94 80 08 	call	0x1100	; 0x1100 <writeString>
		writeInteger(((gDataArray[14].GyroY_H << 8) | gDataArray[14].GyroY_L), DEC);
     760:	20 91 9b 02 	lds	r18, 0x029B
     764:	33 27       	eor	r19, r19
     766:	27 fd       	sbrc	r18, 7
     768:	30 95       	com	r19
     76a:	32 2f       	mov	r19, r18
     76c:	22 27       	eor	r18, r18
     76e:	80 91 9c 02 	lds	r24, 0x029C
     772:	99 27       	eor	r25, r25
     774:	87 fd       	sbrc	r24, 7
     776:	90 95       	com	r25
     778:	6a e0       	ldi	r22, 0x0A	; 10
     77a:	82 2b       	or	r24, r18
     77c:	93 2b       	or	r25, r19
     77e:	0e 94 b8 08 	call	0x1170	; 0x1170 <writeInteger>
		writeChar('\n');
     782:	8a e0       	ldi	r24, 0x0A	; 10
     784:	0e 94 7c 08 	call	0x10f8	; 0x10f8 <writeChar>
		writeChar('\n');
     788:	8a e0       	ldi	r24, 0x0A	; 10
     78a:	0e 94 7c 08 	call	0x10f8	; 0x10f8 <writeChar>
		writeString("GyZ: ");
     78e:	89 e6       	ldi	r24, 0x69	; 105
     790:	91 e0       	ldi	r25, 0x01	; 1
     792:	0e 94 80 08 	call	0x1100	; 0x1100 <writeString>
		writeInteger(((gDataArray[14].GyroZ_H << 8) | gDataArray[14].GyroZ_L), DEC);
     796:	20 91 9d 02 	lds	r18, 0x029D
     79a:	33 27       	eor	r19, r19
     79c:	27 fd       	sbrc	r18, 7
     79e:	30 95       	com	r19
     7a0:	32 2f       	mov	r19, r18
     7a2:	22 27       	eor	r18, r18
     7a4:	80 91 9e 02 	lds	r24, 0x029E
     7a8:	99 27       	eor	r25, r25
     7aa:	87 fd       	sbrc	r24, 7
     7ac:	90 95       	com	r25
     7ae:	6a e0       	ldi	r22, 0x0A	; 10
     7b0:	82 2b       	or	r24, r18
     7b2:	93 2b       	or	r25, r19
     7b4:	0e 94 b8 08 	call	0x1170	; 0x1170 <writeInteger>
		writeChar('\n');
     7b8:	8a e0       	ldi	r24, 0x0A	; 10
     7ba:	0e 94 7c 08 	call	0x10f8	; 0x10f8 <writeChar>
		writeChar('\n');
     7be:	8a e0       	ldi	r24, 0x0A	; 10
     7c0:	0e 94 7c 08 	call	0x10f8	; 0x10f8 <writeChar>
	#endif

	crashInfoToSend.speed = speedCMPerSecond;
     7c4:	c0 92 a0 02 	sts	0x02A0, r12
     7c8:	d0 92 a1 02 	sts	0x02A1, r13
     7cc:	e0 92 a2 02 	sts	0x02A2, r14
     7d0:	f0 92 a3 02 	sts	0x02A3, r15
	crashInfoToSend.sideHit = hitSide;
     7d4:	80 91 9f 02 	lds	r24, 0x029F
     7d8:	80 93 a4 02 	sts	0x02A4, r24
	crashInfoToSend.impact = 1;
     7dc:	81 e0       	ldi	r24, 0x01	; 1
     7de:	90 e0       	ldi	r25, 0x00	; 0
     7e0:	90 93 a6 02 	sts	0x02A6, r25
     7e4:	80 93 a5 02 	sts	0x02A5, r24


	return true;
}
     7e8:	df 91       	pop	r29
     7ea:	cf 91       	pop	r28
     7ec:	1f 91       	pop	r17
     7ee:	0f 91       	pop	r16
     7f0:	ff 90       	pop	r15
     7f2:	ef 90       	pop	r14
     7f4:	df 90       	pop	r13
     7f6:	cf 90       	pop	r12
     7f8:	bf 90       	pop	r11
     7fa:	af 90       	pop	r10
     7fc:	08 95       	ret

000007fe <sendCrashInfo>:

void sendCrashInfo(void)
{
	writeString("SENDING TO ARDUINO\n");
     7fe:	8f e6       	ldi	r24, 0x6F	; 111
     800:	91 e0       	ldi	r25, 0x01	; 1
     802:	0e 94 80 08 	call	0x1100	; 0x1100 <writeString>
	I2CTWI_transmit2Bytes(ARDUINO_WRITE_ADDRESS, 1, crashInfoToSend.speed); // In cm/s
     806:	60 91 a0 02 	lds	r22, 0x02A0
     80a:	70 91 a1 02 	lds	r23, 0x02A1
     80e:	80 91 a2 02 	lds	r24, 0x02A2
     812:	90 91 a3 02 	lds	r25, 0x02A3
     816:	0e 94 5c 0f 	call	0x1eb8	; 0x1eb8 <__fixunssfsi>
     81a:	46 2f       	mov	r20, r22
     81c:	61 e0       	ldi	r22, 0x01	; 1
     81e:	84 e5       	ldi	r24, 0x54	; 84
     820:	0e 94 6f 0b 	call	0x16de	; 0x16de <I2CTWI_transmit2Bytes>
	I2CTWI_transmit3Bytes(ARDUINO_WRITE_ADDRESS, 2, gDataArray[14].GyroX_H, gDataArray[14].GyroX_L);
     824:	20 91 9a 02 	lds	r18, 0x029A
     828:	40 91 99 02 	lds	r20, 0x0299
     82c:	62 e0       	ldi	r22, 0x02	; 2
     82e:	84 e5       	ldi	r24, 0x54	; 84
     830:	0e 94 92 0b 	call	0x1724	; 0x1724 <I2CTWI_transmit3Bytes>
	I2CTWI_transmit3Bytes(ARDUINO_WRITE_ADDRESS, 3, gDataArray[14].GyroY_H, gDataArray[14].GyroY_L);
     834:	20 91 9c 02 	lds	r18, 0x029C
     838:	40 91 9b 02 	lds	r20, 0x029B
     83c:	63 e0       	ldi	r22, 0x03	; 3
     83e:	84 e5       	ldi	r24, 0x54	; 84
     840:	0e 94 92 0b 	call	0x1724	; 0x1724 <I2CTWI_transmit3Bytes>
	I2CTWI_transmit3Bytes(ARDUINO_WRITE_ADDRESS, 4, gDataArray[14].GyroZ_H, gDataArray[14].GyroZ_L);
     844:	20 91 9e 02 	lds	r18, 0x029E
     848:	40 91 9d 02 	lds	r20, 0x029D
     84c:	64 e0       	ldi	r22, 0x04	; 4
     84e:	84 e5       	ldi	r24, 0x54	; 84
     850:	0e 94 92 0b 	call	0x1724	; 0x1724 <I2CTWI_transmit3Bytes>
	I2CTWI_transmit2Bytes(ARDUINO_WRITE_ADDRESS, 5, crashInfoToSend.sideHit); 	// 1: front
     854:	40 91 a4 02 	lds	r20, 0x02A4
     858:	65 e0       	ldi	r22, 0x05	; 5
     85a:	84 e5       	ldi	r24, 0x54	; 84
     85c:	0e 94 6f 0b 	call	0x16de	; 0x16de <I2CTWI_transmit2Bytes>
																				// 2: right
																				// 3: left
																				// 4: back	

	I2CTWI_transmit2Bytes(ARDUINO_WRITE_ADDRESS, 6, crashInfoToSend.impact);
     860:	40 91 a5 02 	lds	r20, 0x02A5
     864:	66 e0       	ldi	r22, 0x06	; 6
     866:	84 e5       	ldi	r24, 0x54	; 84
     868:	0c 94 6f 0b 	jmp	0x16de	; 0x16de <I2CTWI_transmit2Bytes>

0000086c <buttenChanged>:


void buttenChanged(void)
{
	#ifdef SERIAL_DEBUG
		writeString("Bumper changed\n");
     86c:	83 e8       	ldi	r24, 0x83	; 131
     86e:	91 e0       	ldi	r25, 0x01	; 1
     870:	0e 94 80 08 	call	0x1100	; 0x1100 <writeString>
	#endif

	if(!pressed)
     874:	80 91 cb 01 	lds	r24, 0x01CB
     878:	81 11       	cpse	r24, r1
     87a:	26 c0       	rjmp	.+76     	; 0x8c8 <buttenChanged+0x5c>
	{
		#ifdef SERIAL_DEBUG
			writeString("Bumper was pressed\n");
     87c:	83 e9       	ldi	r24, 0x93	; 147
     87e:	91 e0       	ldi	r25, 0x01	; 1
     880:	0e 94 80 08 	call	0x1100	; 0x1100 <writeString>
			writeSpeed();
     884:	0e 94 b1 01 	call	0x362	; 0x362 <writeSpeed>
			writeGyro();
     888:	0e 94 a1 02 	call	0x542	; 0x542 <writeGyro>
		#endif

	 	if(bumper_left || bumper_right)
     88c:	80 91 f1 02 	lds	r24, 0x02F1
     890:	81 11       	cpse	r24, r1
     892:	04 c0       	rjmp	.+8      	; 0x89c <buttenChanged+0x30>
     894:	80 91 2a 03 	lds	r24, 0x032A
     898:	88 23       	and	r24, r24
     89a:	11 f0       	breq	.+4      	; 0x8a0 <buttenChanged+0x34>
	 		hitSide = 1;
     89c:	81 e0       	ldi	r24, 0x01	; 1
     89e:	0b c0       	rjmp	.+22     	; 0x8b6 <buttenChanged+0x4a>
	 	else if(PINC & IO_PC2)
     8a0:	9a 9b       	sbis	0x13, 2	; 19
     8a2:	02 c0       	rjmp	.+4      	; 0x8a8 <buttenChanged+0x3c>
	 		hitSide = 4;
     8a4:	84 e0       	ldi	r24, 0x04	; 4
     8a6:	07 c0       	rjmp	.+14     	; 0x8b6 <buttenChanged+0x4a>
	 	else if(PINC & IO_PC3)
     8a8:	9b 9b       	sbis	0x13, 3	; 19
     8aa:	02 c0       	rjmp	.+4      	; 0x8b0 <buttenChanged+0x44>
	 		hitSide = 3;
     8ac:	83 e0       	ldi	r24, 0x03	; 3
     8ae:	03 c0       	rjmp	.+6      	; 0x8b6 <buttenChanged+0x4a>
	 	else if(PINC & IO_PC5)
     8b0:	9d 9b       	sbis	0x13, 5	; 19
     8b2:	03 c0       	rjmp	.+6      	; 0x8ba <buttenChanged+0x4e>
	 		hitSide = 2;
     8b4:	82 e0       	ldi	r24, 0x02	; 2
     8b6:	80 93 9f 02 	sts	0x029F, r24

		setRP6LEDs(0b1111);
     8ba:	8f e0       	ldi	r24, 0x0F	; 15
     8bc:	0e 94 b7 0e 	call	0x1d6e	; 0x1d6e <setRP6LEDs>
		pressed = true;
     8c0:	81 e0       	ldi	r24, 0x01	; 1
     8c2:	80 93 cb 01 	sts	0x01CB, r24
     8c6:	08 95       	ret
	}
	else if(pressed)
	{
		#ifdef SERIAL_DEBUG
			writeString("Bumper was released\n");
     8c8:	87 ea       	ldi	r24, 0xA7	; 167
     8ca:	91 e0       	ldi	r25, 0x01	; 1
     8cc:	0e 94 80 08 	call	0x1100	; 0x1100 <writeString>
		#endif

		pressed = false;
     8d0:	10 92 cb 01 	sts	0x01CB, r1
		crashInfoWasSend = false;
     8d4:	10 92 ca 01 	sts	0x01CA, r1
     8d8:	08 95       	ret

000008da <INT0_event_DUMMY>:
// Event Handlers. 
// Please make sure that you keep the Event Handler Functions as
// short as possible! 
// --> You usually don't need this stuff. 

void INT0_event_DUMMY(void){}
     8da:	08 95       	ret

000008dc <INT1_event_DUMMY>:
ISR (INT0_vect)
{
	INT0_eventHandler();
}

void INT1_event_DUMMY(void){}
     8dc:	08 95       	ret

000008de <INT2_event_DUMMY>:
ISR (INT1_vect)
{
	INT1_eventHandler();
}

void INT2_event_DUMMY(void){}
     8de:	08 95       	ret

000008e0 <INT0_setEventHandler>:

void INT0_event_DUMMY(void){}
static void (*INT0_eventHandler)(void) = INT0_event_DUMMY;
void INT0_setEventHandler(void (*i0eventHandler)(void))
{
	INT0_eventHandler = i0eventHandler;
     8e0:	90 93 67 00 	sts	0x0067, r25
     8e4:	80 93 66 00 	sts	0x0066, r24
     8e8:	08 95       	ret

000008ea <__vector_1>:

/**
 * External Interrupt 0 ISR
 */
ISR (INT0_vect)
{
     8ea:	1f 92       	push	r1
     8ec:	0f 92       	push	r0
     8ee:	0f b6       	in	r0, 0x3f	; 63
     8f0:	0f 92       	push	r0
     8f2:	11 24       	eor	r1, r1
     8f4:	2f 93       	push	r18
     8f6:	3f 93       	push	r19
     8f8:	4f 93       	push	r20
     8fa:	5f 93       	push	r21
     8fc:	6f 93       	push	r22
     8fe:	7f 93       	push	r23
     900:	8f 93       	push	r24
     902:	9f 93       	push	r25
     904:	af 93       	push	r26
     906:	bf 93       	push	r27
     908:	ef 93       	push	r30
     90a:	ff 93       	push	r31
	INT0_eventHandler();
     90c:	e0 91 66 00 	lds	r30, 0x0066
     910:	f0 91 67 00 	lds	r31, 0x0067
     914:	09 95       	icall
}
     916:	ff 91       	pop	r31
     918:	ef 91       	pop	r30
     91a:	bf 91       	pop	r27
     91c:	af 91       	pop	r26
     91e:	9f 91       	pop	r25
     920:	8f 91       	pop	r24
     922:	7f 91       	pop	r23
     924:	6f 91       	pop	r22
     926:	5f 91       	pop	r21
     928:	4f 91       	pop	r20
     92a:	3f 91       	pop	r19
     92c:	2f 91       	pop	r18
     92e:	0f 90       	pop	r0
     930:	0f be       	out	0x3f, r0	; 63
     932:	0f 90       	pop	r0
     934:	1f 90       	pop	r1
     936:	18 95       	reti

00000938 <INT1_setEventHandler>:

void INT1_event_DUMMY(void){}
static void (*INT1_eventHandler)(void) = INT1_event_DUMMY;
void INT1_setEventHandler(void (*i1eventHandler)(void))
{
	INT1_eventHandler = i1eventHandler;
     938:	90 93 65 00 	sts	0x0065, r25
     93c:	80 93 64 00 	sts	0x0064, r24
     940:	08 95       	ret

00000942 <__vector_2>:

/**
 * External Interrupt 1 ISR
 */
ISR (INT1_vect)
{
     942:	1f 92       	push	r1
     944:	0f 92       	push	r0
     946:	0f b6       	in	r0, 0x3f	; 63
     948:	0f 92       	push	r0
     94a:	11 24       	eor	r1, r1
     94c:	2f 93       	push	r18
     94e:	3f 93       	push	r19
     950:	4f 93       	push	r20
     952:	5f 93       	push	r21
     954:	6f 93       	push	r22
     956:	7f 93       	push	r23
     958:	8f 93       	push	r24
     95a:	9f 93       	push	r25
     95c:	af 93       	push	r26
     95e:	bf 93       	push	r27
     960:	ef 93       	push	r30
     962:	ff 93       	push	r31
	INT1_eventHandler();
     964:	e0 91 64 00 	lds	r30, 0x0064
     968:	f0 91 65 00 	lds	r31, 0x0065
     96c:	09 95       	icall
}
     96e:	ff 91       	pop	r31
     970:	ef 91       	pop	r30
     972:	bf 91       	pop	r27
     974:	af 91       	pop	r26
     976:	9f 91       	pop	r25
     978:	8f 91       	pop	r24
     97a:	7f 91       	pop	r23
     97c:	6f 91       	pop	r22
     97e:	5f 91       	pop	r21
     980:	4f 91       	pop	r20
     982:	3f 91       	pop	r19
     984:	2f 91       	pop	r18
     986:	0f 90       	pop	r0
     988:	0f be       	out	0x3f, r0	; 63
     98a:	0f 90       	pop	r0
     98c:	1f 90       	pop	r1
     98e:	18 95       	reti

00000990 <INT2_setEventHandler>:

void INT2_event_DUMMY(void){}
static void (*INT2_eventHandler)(void) = INT2_event_DUMMY;
void INT2_setEventHandler(void (*i2eventHandler)(void))
{
	INT2_eventHandler = i2eventHandler;
     990:	90 93 63 00 	sts	0x0063, r25
     994:	80 93 62 00 	sts	0x0062, r24
     998:	08 95       	ret

0000099a <__vector_3>:

/**
 * External Interrupt 2 ISR
 */
ISR (INT2_vect)
{
     99a:	1f 92       	push	r1
     99c:	0f 92       	push	r0
     99e:	0f b6       	in	r0, 0x3f	; 63
     9a0:	0f 92       	push	r0
     9a2:	11 24       	eor	r1, r1
     9a4:	2f 93       	push	r18
     9a6:	3f 93       	push	r19
     9a8:	4f 93       	push	r20
     9aa:	5f 93       	push	r21
     9ac:	6f 93       	push	r22
     9ae:	7f 93       	push	r23
     9b0:	8f 93       	push	r24
     9b2:	9f 93       	push	r25
     9b4:	af 93       	push	r26
     9b6:	bf 93       	push	r27
     9b8:	ef 93       	push	r30
     9ba:	ff 93       	push	r31
	INT2_eventHandler();
     9bc:	e0 91 62 00 	lds	r30, 0x0062
     9c0:	f0 91 63 00 	lds	r31, 0x0063
     9c4:	09 95       	icall
}
     9c6:	ff 91       	pop	r31
     9c8:	ef 91       	pop	r30
     9ca:	bf 91       	pop	r27
     9cc:	af 91       	pop	r26
     9ce:	9f 91       	pop	r25
     9d0:	8f 91       	pop	r24
     9d2:	7f 91       	pop	r23
     9d4:	6f 91       	pop	r22
     9d6:	5f 91       	pop	r21
     9d8:	4f 91       	pop	r20
     9da:	3f 91       	pop	r19
     9dc:	2f 91       	pop	r18
     9de:	0f 90       	pop	r0
     9e0:	0f be       	out	0x3f, r0	; 63
     9e2:	0f 90       	pop	r0
     9e4:	1f 90       	pop	r1
     9e6:	18 95       	reti

000009e8 <readADC>:
 * is complete. 
 *
 */
uint16_t readADC(uint8_t channel)
{
	if((ADCSRA & (1<<ADSC))) return 0; // check if ADC is buisy...
     9e8:	36 99       	sbic	0x06, 6	; 6
     9ea:	0a c0       	rjmp	.+20     	; 0xa00 <readADC+0x18>
	ADMUX = (1<<REFS0) | (0<<REFS1) | (channel<<MUX0);
     9ec:	80 64       	ori	r24, 0x40	; 64
     9ee:	87 b9       	out	0x07, r24	; 7
	ADCSRA = (0<<ADIE) | (1<<ADSC) | (1<<ADEN) | (1<<ADPS2) | (1<<ADPS1) | (1<<ADIF);
     9f0:	86 ed       	ldi	r24, 0xD6	; 214
     9f2:	86 b9       	out	0x06, r24	; 6
	while ((ADCSRA & (1<<ADSC))); 
     9f4:	36 99       	sbic	0x06, 6	; 6
     9f6:	fe cf       	rjmp	.-4      	; 0x9f4 <readADC+0xc>
	ADCSRA |= (1<<ADIF);
     9f8:	34 9a       	sbi	0x06, 4	; 6
	return ADC;
     9fa:	84 b1       	in	r24, 0x04	; 4
     9fc:	95 b1       	in	r25, 0x05	; 5
     9fe:	08 95       	ret
 * is complete. 
 *
 */
uint16_t readADC(uint8_t channel)
{
	if((ADCSRA & (1<<ADSC))) return 0; // check if ADC is buisy...
     a00:	80 e0       	ldi	r24, 0x00	; 0
     a02:	90 e0       	ldi	r25, 0x00	; 0
	ADMUX = (1<<REFS0) | (0<<REFS1) | (channel<<MUX0);
	ADCSRA = (0<<ADIE) | (1<<ADSC) | (1<<ADEN) | (1<<ADPS2) | (1<<ADPS1) | (1<<ADIF);
	while ((ADCSRA & (1<<ADSC))); 
	ADCSRA |= (1<<ADIF);
	return ADC;
}
     a04:	08 95       	ret

00000a06 <writeSPI>:
/**
 * Writes a single Databyte to the SPI Interface.
 */
void writeSPI(uint8_t data) 
{     
	SPDR = data;    
     a06:	8f b9       	out	0x0f, r24	; 15
	while(!(SPSR & (1<<SPIF)));
     a08:	77 9b       	sbis	0x0e, 7	; 14
     a0a:	fe cf       	rjmp	.-4      	; 0xa08 <writeSPI+0x2>
}
     a0c:	08 95       	ret

00000a0e <readSPI>:
/**
 * Reads a single Databyte from the SPI Interface.
 */
uint8_t readSPI(void)
{
	writeSPI(0xFF);
     a0e:	8f ef       	ldi	r24, 0xFF	; 255
     a10:	0e 94 03 05 	call	0xa06	; 0xa06 <writeSPI>
	return SPDR;
     a14:	8f b1       	in	r24, 0x0f	; 15
}
     a16:	08 95       	ret

00000a18 <readWordSPI>:
/**
 * Reads TWO Bytes from the SPI Interface and returns them as
 * a 16 Bit value with first byte read in the upper 8 bits.
 */
uint16_t readWordSPI(void)
{
     a18:	cf 93       	push	r28
     a1a:	df 93       	push	r29
	uint16_t data = 0;
	data = readSPI() << 8;
     a1c:	0e 94 07 05 	call	0xa0e	; 0xa0e <readSPI>
     a20:	c8 2f       	mov	r28, r24
     a22:	d0 e0       	ldi	r29, 0x00	; 0
     a24:	dc 2f       	mov	r29, r28
     a26:	cc 27       	eor	r28, r28
	data |= readSPI();
     a28:	0e 94 07 05 	call	0xa0e	; 0xa0e <readSPI>
	return data;
}
     a2c:	9e 01       	movw	r18, r28
     a2e:	28 2b       	or	r18, r24
     a30:	c9 01       	movw	r24, r18
     a32:	df 91       	pop	r29
     a34:	cf 91       	pop	r28
     a36:	08 95       	ret

00000a38 <writeWordSPI>:
/**
 * Writes two Bytes contained in the 16 Bit parameter "data".
 * The first byte to be written needs to be in the upper 8 Bits.
 */
void writeWordSPI(uint16_t data)
{
     a38:	cf 93       	push	r28
     a3a:	c8 2f       	mov	r28, r24
	writeSPI((uint8_t)(data >> 8));
     a3c:	89 2f       	mov	r24, r25
     a3e:	0e 94 03 05 	call	0xa06	; 0xa06 <writeSPI>
	writeSPI((uint8_t)data);
     a42:	8c 2f       	mov	r24, r28
}
     a44:	cf 91       	pop	r28
 * The first byte to be written needs to be in the upper 8 Bits.
 */
void writeWordSPI(uint16_t data)
{
	writeSPI((uint8_t)(data >> 8));
	writeSPI((uint8_t)data);
     a46:	0c 94 03 05 	jmp	0xa06	; 0xa06 <writeSPI>

00000a4a <writeBufferSPI>:
 * This function writes up to 255 Bytes to the SPI Interface.
 * The numer of bytes in the Buffer that shall be written is given 
 * by the parameter length.
 */
void writeBufferSPI(uint8_t *buffer, uint8_t length)
{
     a4a:	28 2f       	mov	r18, r24
	uint8_t i = 0;
	for(; i < length; i++) {
     a4c:	fc 01       	movw	r30, r24
     a4e:	8e 2f       	mov	r24, r30
     a50:	82 1b       	sub	r24, r18
     a52:	86 17       	cp	r24, r22
     a54:	28 f4       	brcc	.+10     	; 0xa60 <writeBufferSPI+0x16>
		SPDR = buffer[i];    
     a56:	81 91       	ld	r24, Z+
     a58:	8f b9       	out	0x0f, r24	; 15
		while(!(SPSR & (1<<SPIF)));
     a5a:	77 9b       	sbis	0x0e, 7	; 14
     a5c:	fe cf       	rjmp	.-4      	; 0xa5a <writeBufferSPI+0x10>
     a5e:	f7 cf       	rjmp	.-18     	; 0xa4e <writeBufferSPI+0x4>
	}
}
     a60:	08 95       	ret

00000a62 <readBufferSPI>:

/** 
 * Reads "length" Bytes from SPI Interface into the buffer.
 */
void readBufferSPI(uint8_t *buffer, uint8_t length)
{
     a62:	28 2f       	mov	r18, r24
	uint8_t i = 0;
	for(; i < length; i++) {
     a64:	fc 01       	movw	r30, r24
		SPDR = 0xFF;    
     a66:	9f ef       	ldi	r25, 0xFF	; 255
     a68:	8e 2f       	mov	r24, r30
     a6a:	82 1b       	sub	r24, r18
 * Reads "length" Bytes from SPI Interface into the buffer.
 */
void readBufferSPI(uint8_t *buffer, uint8_t length)
{
	uint8_t i = 0;
	for(; i < length; i++) {
     a6c:	86 17       	cp	r24, r22
     a6e:	30 f4       	brcc	.+12     	; 0xa7c <readBufferSPI+0x1a>
		SPDR = 0xFF;    
     a70:	9f b9       	out	0x0f, r25	; 15
		while(!(SPSR & (1<<SPIF)));
     a72:	77 9b       	sbis	0x0e, 7	; 14
     a74:	fe cf       	rjmp	.-4      	; 0xa72 <readBufferSPI+0x10>
		buffer[i] = SPDR;
     a76:	8f b1       	in	r24, 0x0f	; 15
     a78:	81 93       	st	Z+, r24
     a7a:	f6 cf       	rjmp	.-20     	; 0xa68 <readBufferSPI+0x6>
	}
}
     a7c:	08 95       	ret

00000a7e <SPI_EEPROM_readByte>:

/**
 * Reads a single Byte from the external EEPROM.
 */
uint8_t SPI_EEPROM_readByte(uint16_t memAddr)
{
     a7e:	cf 93       	push	r28
     a80:	df 93       	push	r29
     a82:	ec 01       	movw	r28, r24
	uint8_t data;
	PORTB &= ~MEM_CS;
     a84:	c0 98       	cbi	0x18, 0	; 24
	writeSPI(SPI_EEPROM_READ);
     a86:	83 e0       	ldi	r24, 0x03	; 3
     a88:	0e 94 03 05 	call	0xa06	; 0xa06 <writeSPI>
	writeWordSPI(memAddr);
     a8c:	ce 01       	movw	r24, r28
     a8e:	0e 94 1c 05 	call	0xa38	; 0xa38 <writeWordSPI>
	data = readSPI();
     a92:	0e 94 07 05 	call	0xa0e	; 0xa0e <readSPI>
	PORTB |= MEM_CS;
     a96:	c0 9a       	sbi	0x18, 0	; 24
	return data;
}
     a98:	df 91       	pop	r29
     a9a:	cf 91       	pop	r28
     a9c:	08 95       	ret

00000a9e <SPI_EEPROM_readBytes>:
 * Reads "length" Bytes into the Buffer "buffer" from startAdr on. 
 * You can read the complete EEPROM into a buffer at once - if it is large enough. 
 * (But you only have 2KB SRAM on a MEGA32 ;) )
 */
void SPI_EEPROM_readBytes(uint16_t startAddr, uint8_t *buffer, uint8_t length)
{
     a9e:	ef 92       	push	r14
     aa0:	ff 92       	push	r15
     aa2:	0f 93       	push	r16
     aa4:	1f 93       	push	r17
     aa6:	cf 93       	push	r28
     aa8:	df 93       	push	r29
     aaa:	1f 92       	push	r1
     aac:	cd b7       	in	r28, 0x3d	; 61
     aae:	de b7       	in	r29, 0x3e	; 62
     ab0:	7c 01       	movw	r14, r24
     ab2:	8b 01       	movw	r16, r22
	PORTB &= ~MEM_CS;
     ab4:	c0 98       	cbi	0x18, 0	; 24
	writeSPI(SPI_EEPROM_READ);
     ab6:	83 e0       	ldi	r24, 0x03	; 3
     ab8:	49 83       	std	Y+1, r20	; 0x01
     aba:	0e 94 03 05 	call	0xa06	; 0xa06 <writeSPI>
	writeWordSPI(startAddr);
     abe:	c7 01       	movw	r24, r14
     ac0:	0e 94 1c 05 	call	0xa38	; 0xa38 <writeWordSPI>
	readBufferSPI(&buffer[0], length);
     ac4:	49 81       	ldd	r20, Y+1	; 0x01
     ac6:	64 2f       	mov	r22, r20
     ac8:	c8 01       	movw	r24, r16
     aca:	0e 94 31 05 	call	0xa62	; 0xa62 <readBufferSPI>
	PORTB |= MEM_CS;
     ace:	c0 9a       	sbi	0x18, 0	; 24
}
     ad0:	0f 90       	pop	r0
     ad2:	df 91       	pop	r29
     ad4:	cf 91       	pop	r28
     ad6:	1f 91       	pop	r17
     ad8:	0f 91       	pop	r16
     ada:	ff 90       	pop	r15
     adc:	ef 90       	pop	r14
     ade:	08 95       	ret

00000ae0 <SPI_EEPROM_enableWrite>:
/**
 * Enable Write Mode
 */
void SPI_EEPROM_enableWrite(void)
{
	PORTB &= ~MEM_CS;
     ae0:	c0 98       	cbi	0x18, 0	; 24
	writeSPI(SPI_EEPROM_WREN);
     ae2:	86 e0       	ldi	r24, 0x06	; 6
     ae4:	0e 94 03 05 	call	0xa06	; 0xa06 <writeSPI>
	PORTB |= MEM_CS;
     ae8:	c0 9a       	sbi	0x18, 0	; 24
     aea:	08 95       	ret

00000aec <SPI_EEPROM_disableWrite>:
/**
 * Disable Write Mode
 */
void SPI_EEPROM_disableWrite(void)
{
	PORTB &= ~MEM_CS;
     aec:	c0 98       	cbi	0x18, 0	; 24
	writeSPI(SPI_EEPROM_WRDI);
     aee:	84 e0       	ldi	r24, 0x04	; 4
     af0:	0e 94 03 05 	call	0xa06	; 0xa06 <writeSPI>
	PORTB |= MEM_CS;
     af4:	c0 9a       	sbi	0x18, 0	; 24
     af6:	08 95       	ret

00000af8 <SPI_EEPROM_getStatus>:
 * Writing takes about 5ms. 
 */
uint8_t SPI_EEPROM_getStatus(void)
{
	uint8_t status;
	PORTB &= ~MEM_CS;
     af8:	c0 98       	cbi	0x18, 0	; 24
	writeSPI(SPI_EEPROM_RDSR);
     afa:	85 e0       	ldi	r24, 0x05	; 5
     afc:	0e 94 03 05 	call	0xa06	; 0xa06 <writeSPI>
	status = readSPI();
     b00:	0e 94 07 05 	call	0xa0e	; 0xa0e <readSPI>
	PORTB |= MEM_CS;
     b04:	c0 9a       	sbi	0x18, 0	; 24
	return status;
}
     b06:	08 95       	ret

00000b08 <SPI_EEPROM_writeByte>:

/**
 * Write a single data byte to the specified EEPROM address.
 */
void SPI_EEPROM_writeByte(uint16_t memAddr, uint8_t data)
{
     b08:	1f 93       	push	r17
     b0a:	cf 93       	push	r28
     b0c:	df 93       	push	r29
     b0e:	ec 01       	movw	r28, r24
     b10:	16 2f       	mov	r17, r22
	while(SPI_EEPROM_getStatus() & SPI_EEPROM_STAT_WIP);
     b12:	0e 94 7c 05 	call	0xaf8	; 0xaf8 <SPI_EEPROM_getStatus>
     b16:	80 fd       	sbrc	r24, 0
     b18:	fc cf       	rjmp	.-8      	; 0xb12 <SPI_EEPROM_writeByte+0xa>
	SPI_EEPROM_enableWrite();
     b1a:	0e 94 70 05 	call	0xae0	; 0xae0 <SPI_EEPROM_enableWrite>
	PORTB &= ~MEM_CS;
     b1e:	c0 98       	cbi	0x18, 0	; 24
	writeSPI(SPI_EEPROM_WRITE);
     b20:	82 e0       	ldi	r24, 0x02	; 2
     b22:	0e 94 03 05 	call	0xa06	; 0xa06 <writeSPI>
	writeWordSPI(memAddr);
     b26:	ce 01       	movw	r24, r28
     b28:	0e 94 1c 05 	call	0xa38	; 0xa38 <writeWordSPI>
	writeSPI(data);
     b2c:	81 2f       	mov	r24, r17
     b2e:	0e 94 03 05 	call	0xa06	; 0xa06 <writeSPI>
	PORTB |= MEM_CS;
     b32:	c0 9a       	sbi	0x18, 0	; 24
}
     b34:	df 91       	pop	r29
     b36:	cf 91       	pop	r28
     b38:	1f 91       	pop	r17
     b3a:	08 95       	ret

00000b3c <SPI_EEPROM_writeBytes>:
 * instead only up to 63 and then it continues at Byte 0 and writes 
 * the rest up to Byte 10!
 *
 */
void SPI_EEPROM_writeBytes(uint16_t startAddr, uint8_t *buffer, uint8_t length)
{
     b3c:	ff 92       	push	r15
     b3e:	0f 93       	push	r16
     b40:	1f 93       	push	r17
     b42:	cf 93       	push	r28
     b44:	df 93       	push	r29
     b46:	ec 01       	movw	r28, r24
     b48:	8b 01       	movw	r16, r22
     b4a:	f4 2e       	mov	r15, r20
	while(SPI_EEPROM_getStatus() & SPI_EEPROM_STAT_WIP);
     b4c:	0e 94 7c 05 	call	0xaf8	; 0xaf8 <SPI_EEPROM_getStatus>
     b50:	80 fd       	sbrc	r24, 0
     b52:	fc cf       	rjmp	.-8      	; 0xb4c <SPI_EEPROM_writeBytes+0x10>
	SPI_EEPROM_enableWrite();
     b54:	0e 94 70 05 	call	0xae0	; 0xae0 <SPI_EEPROM_enableWrite>
	PORTB &= ~MEM_CS;
     b58:	c0 98       	cbi	0x18, 0	; 24
	writeSPI(SPI_EEPROM_WRITE);
     b5a:	82 e0       	ldi	r24, 0x02	; 2
     b5c:	0e 94 03 05 	call	0xa06	; 0xa06 <writeSPI>
	writeWordSPI(startAddr);
     b60:	ce 01       	movw	r24, r28
     b62:	0e 94 1c 05 	call	0xa38	; 0xa38 <writeWordSPI>
	writeBufferSPI(&buffer[0], length);
     b66:	6f 2d       	mov	r22, r15
     b68:	c8 01       	movw	r24, r16
     b6a:	0e 94 25 05 	call	0xa4a	; 0xa4a <writeBufferSPI>
	PORTB |= MEM_CS;
     b6e:	c0 9a       	sbi	0x18, 0	; 24
}
     b70:	df 91       	pop	r29
     b72:	cf 91       	pop	r28
     b74:	1f 91       	pop	r17
     b76:	0f 91       	pop	r16
     b78:	ff 90       	pop	r15
     b7a:	08 95       	ret

00000b7c <outputExt>:
 * in 4 or 8bit mode - we use 4bit mode to save portpins) 
 *
 */
void outputExt(void)
{      
  writeSPI(externalPort.byte);   
     b7c:	80 91 ca 02 	lds	r24, 0x02CA
     b80:	0e 94 03 05 	call	0xa06	; 0xa06 <writeSPI>
  PORTD |= STR;
     b84:	94 9a       	sbi	0x12, 4	; 18
  nop();
     b86:	00 00       	nop
  nop();
     b88:	00 00       	nop
  PORTD &= ~STR;        
     b8a:	94 98       	cbi	0x12, 4	; 18
     b8c:	08 95       	ret

00000b8e <setLEDs>:
 * are connected to the LCD! 
 *
 */
void setLEDs(uint8_t leds)
{
	externalPort.LEDS = leds;
     b8e:	8f 70       	andi	r24, 0x0F	; 15
     b90:	90 91 ca 02 	lds	r25, 0x02CA
     b94:	90 7f       	andi	r25, 0xF0	; 240
     b96:	98 2b       	or	r25, r24
     b98:	90 93 ca 02 	sts	0x02CA, r25
	outputExt();
     b9c:	0c 94 be 05 	jmp	0xb7c	; 0xb7c <outputExt>

00000ba0 <getPressedKeyNumber>:
 * Maybe you need to adjust these values because of variations
 * in the resitors of the keypad!
 *
 */
uint8_t getPressedKeyNumber(void)
{
     ba0:	cf 93       	push	r28
     ba2:	df 93       	push	r29
	uint16_t keys;
	keys = readADC(ADC_KEYPAD);
     ba4:	81 e0       	ldi	r24, 0x01	; 1
     ba6:	0e 94 f4 04 	call	0x9e8	; 0x9e8 <readADC>
     baa:	ec 01       	movw	r28, r24
	if(keys < 1020) {
     bac:	cc 3f       	cpi	r28, 0xFC	; 252
     bae:	83 e0       	ldi	r24, 0x03	; 3
     bb0:	d8 07       	cpc	r29, r24
     bb2:	88 f4       	brcc	.+34     	; 0xbd6 <getPressedKeyNumber+0x36>
		nop();
     bb4:	00 00       	nop
		nop();
     bb6:	00 00       	nop
		nop();
     bb8:	00 00       	nop
		keys += readADC(ADC_KEYPAD);
     bba:	81 e0       	ldi	r24, 0x01	; 1
     bbc:	0e 94 f4 04 	call	0x9e8	; 0x9e8 <readADC>
     bc0:	c8 0f       	add	r28, r24
     bc2:	d9 1f       	adc	r29, r25
		keys >>= 1;
     bc4:	d6 95       	lsr	r29
     bc6:	c7 95       	ror	r28
	}
	if(keys < 50)
     bc8:	c2 33       	cpi	r28, 0x32	; 50
     bca:	d1 05       	cpc	r29, r1
     bcc:	88 f0       	brcs	.+34     	; 0xbf0 <getPressedKeyNumber+0x50>
		return 1;
	if(keys < 580)
     bce:	c4 34       	cpi	r28, 0x44	; 68
     bd0:	82 e0       	ldi	r24, 0x02	; 2
     bd2:	d8 07       	cpc	r29, r24
     bd4:	78 f0       	brcs	.+30     	; 0xbf4 <getPressedKeyNumber+0x54>
		return 2;
	if(keys < 700)
     bd6:	cc 3b       	cpi	r28, 0xBC	; 188
     bd8:	82 e0       	ldi	r24, 0x02	; 2
     bda:	d8 07       	cpc	r29, r24
     bdc:	68 f0       	brcs	.+26     	; 0xbf8 <getPressedKeyNumber+0x58>
		return 3;
	if(keys < 790)
     bde:	c6 31       	cpi	r28, 0x16	; 22
     be0:	83 e0       	ldi	r24, 0x03	; 3
     be2:	d8 07       	cpc	r29, r24
     be4:	58 f0       	brcs	.+22     	; 0xbfc <getPressedKeyNumber+0x5c>
		return 4;
	if(keys < 830)
     be6:	ce 33       	cpi	r28, 0x3E	; 62
     be8:	d3 40       	sbci	r29, 0x03	; 3
     bea:	50 f4       	brcc	.+20     	; 0xc00 <getPressedKeyNumber+0x60>
		return 5;
     bec:	85 e0       	ldi	r24, 0x05	; 5
     bee:	09 c0       	rjmp	.+18     	; 0xc02 <getPressedKeyNumber+0x62>
		nop();
		keys += readADC(ADC_KEYPAD);
		keys >>= 1;
	}
	if(keys < 50)
		return 1;
     bf0:	81 e0       	ldi	r24, 0x01	; 1
     bf2:	07 c0       	rjmp	.+14     	; 0xc02 <getPressedKeyNumber+0x62>
	if(keys < 580)
		return 2;
     bf4:	82 e0       	ldi	r24, 0x02	; 2
     bf6:	05 c0       	rjmp	.+10     	; 0xc02 <getPressedKeyNumber+0x62>
	if(keys < 700)
		return 3;
     bf8:	83 e0       	ldi	r24, 0x03	; 3
     bfa:	03 c0       	rjmp	.+6      	; 0xc02 <getPressedKeyNumber+0x62>
	if(keys < 790)
		return 4;
     bfc:	84 e0       	ldi	r24, 0x04	; 4
     bfe:	01 c0       	rjmp	.+2      	; 0xc02 <getPressedKeyNumber+0x62>
	if(keys < 830)
		return 5;
	return 0;
     c00:	80 e0       	ldi	r24, 0x00	; 0
}
     c02:	df 91       	pop	r29
     c04:	cf 91       	pop	r28
     c06:	08 95       	ret

00000c08 <checkPressedKeyEvent>:
 * to be released again!
 */
uint8_t checkPressedKeyEvent(void)
{
	static uint8_t pressed_key = 0;
	if(pressed_key) {
     c08:	80 91 cd 01 	lds	r24, 0x01CD
     c0c:	88 23       	and	r24, r24
     c0e:	39 f0       	breq	.+14     	; 0xc1e <checkPressedKeyEvent+0x16>
		if(!getPressedKeyNumber()) 
     c10:	0e 94 d0 05 	call	0xba0	; 0xba0 <getPressedKeyNumber>
     c14:	81 11       	cpse	r24, r1
     c16:	08 c0       	rjmp	.+16     	; 0xc28 <checkPressedKeyEvent+0x20>
			pressed_key = 0;
     c18:	10 92 cd 01 	sts	0x01CD, r1
     c1c:	08 95       	ret
	}
	else {
		pressed_key = getPressedKeyNumber();
     c1e:	0e 94 d0 05 	call	0xba0	; 0xba0 <getPressedKeyNumber>
     c22:	80 93 cd 01 	sts	0x01CD, r24
     c26:	08 95       	ret
		if(pressed_key)
			return pressed_key;
	}
	return 0;
     c28:	80 e0       	ldi	r24, 0x00	; 0
}
     c2a:	08 95       	ret

00000c2c <checkReleasedKeyEvent>:
 * main loop. You don't need something like 
 * "while(getPressedKeyNumber());" to wait for the button
 * to be released again!
 */
uint8_t checkReleasedKeyEvent(void)
{
     c2c:	cf 93       	push	r28
	static uint8_t released_key = 0;
	if(released_key) {
     c2e:	c0 91 cc 01 	lds	r28, 0x01CC
     c32:	cc 23       	and	r28, r28
     c34:	41 f0       	breq	.+16     	; 0xc46 <checkReleasedKeyEvent+0x1a>
		if(!getPressedKeyNumber()) {
     c36:	0e 94 d0 05 	call	0xba0	; 0xba0 <getPressedKeyNumber>
     c3a:	81 11       	cpse	r24, r1
     c3c:	08 c0       	rjmp	.+16     	; 0xc4e <checkReleasedKeyEvent+0x22>
			uint8_t tmp = released_key;
			released_key = 0;
     c3e:	10 92 cc 01 	sts	0x01CC, r1
			return tmp;
     c42:	8c 2f       	mov	r24, r28
     c44:	05 c0       	rjmp	.+10     	; 0xc50 <checkReleasedKeyEvent+0x24>
		}
	}
	else
		released_key = getPressedKeyNumber();
     c46:	0e 94 d0 05 	call	0xba0	; 0xba0 <getPressedKeyNumber>
     c4a:	80 93 cc 01 	sts	0x01CC, r24
	return 0;
     c4e:	80 e0       	ldi	r24, 0x00	; 0
}
     c50:	cf 91       	pop	r28
     c52:	08 95       	ret

00000c54 <__vector_10>:
 *
 * By default, it runs at 10kHz which means this ISR is called
 * every ~100s! This is nice for timing stuff!
 */
ISR (TIMER0_COMP_vect)
{
     c54:	1f 92       	push	r1
     c56:	0f 92       	push	r0
     c58:	0f b6       	in	r0, 0x3f	; 63
     c5a:	0f 92       	push	r0
     c5c:	11 24       	eor	r1, r1
     c5e:	8f 93       	push	r24
     c60:	9f 93       	push	r25
	// 16bit timer (100s resolution)
	timer++;
     c62:	80 91 20 02 	lds	r24, 0x0220
     c66:	90 91 21 02 	lds	r25, 0x0221
     c6a:	01 96       	adiw	r24, 0x01	; 1
     c6c:	90 93 21 02 	sts	0x0221, r25
     c70:	80 93 20 02 	sts	0x0220, r24
	
	// Blocking delay (100s):
	delay_timer++;
     c74:	80 91 cb 02 	lds	r24, 0x02CB
     c78:	8f 5f       	subi	r24, 0xFF	; 255
     c7a:	80 93 cb 02 	sts	0x02CB, r24
	
	// All 1ms based timing stuff
	if(ms_timer++ >= 9) { // 10 * 100s = 1ms, >= 9 because 0..9 = 10 counts
     c7e:	80 91 cc 02 	lds	r24, 0x02CC
     c82:	91 e0       	ldi	r25, 0x01	; 1
     c84:	98 0f       	add	r25, r24
     c86:	90 93 cc 02 	sts	0x02CC, r25
     c8a:	89 30       	cpi	r24, 0x09	; 9
     c8c:	08 f4       	brcc	.+2      	; 0xc90 <__vector_10+0x3c>
     c8e:	84 c0       	rjmp	.+264    	; 0xd98 <__vector_10+0x144>
		// 16bit Stopwatches:
		if(stopwatches.watches & STOPWATCH1)
     c90:	80 91 b9 02 	lds	r24, 0x02B9
     c94:	80 ff       	sbrs	r24, 0
     c96:	09 c0       	rjmp	.+18     	; 0xcaa <__vector_10+0x56>
			stopwatches.watch1++;
     c98:	80 91 ba 02 	lds	r24, 0x02BA
     c9c:	90 91 bb 02 	lds	r25, 0x02BB
     ca0:	01 96       	adiw	r24, 0x01	; 1
     ca2:	90 93 bb 02 	sts	0x02BB, r25
     ca6:	80 93 ba 02 	sts	0x02BA, r24
		if(stopwatches.watches & STOPWATCH2)
     caa:	80 91 b9 02 	lds	r24, 0x02B9
     cae:	81 ff       	sbrs	r24, 1
     cb0:	09 c0       	rjmp	.+18     	; 0xcc4 <__vector_10+0x70>
			stopwatches.watch2++;
     cb2:	80 91 bc 02 	lds	r24, 0x02BC
     cb6:	90 91 bd 02 	lds	r25, 0x02BD
     cba:	01 96       	adiw	r24, 0x01	; 1
     cbc:	90 93 bd 02 	sts	0x02BD, r25
     cc0:	80 93 bc 02 	sts	0x02BC, r24
		if(stopwatches.watches & STOPWATCH3)
     cc4:	80 91 b9 02 	lds	r24, 0x02B9
     cc8:	82 ff       	sbrs	r24, 2
     cca:	09 c0       	rjmp	.+18     	; 0xcde <__vector_10+0x8a>
			stopwatches.watch3++;
     ccc:	80 91 be 02 	lds	r24, 0x02BE
     cd0:	90 91 bf 02 	lds	r25, 0x02BF
     cd4:	01 96       	adiw	r24, 0x01	; 1
     cd6:	90 93 bf 02 	sts	0x02BF, r25
     cda:	80 93 be 02 	sts	0x02BE, r24
		if(stopwatches.watches & STOPWATCH4)
     cde:	80 91 b9 02 	lds	r24, 0x02B9
     ce2:	83 ff       	sbrs	r24, 3
     ce4:	09 c0       	rjmp	.+18     	; 0xcf8 <__vector_10+0xa4>
			stopwatches.watch4++;
     ce6:	80 91 c0 02 	lds	r24, 0x02C0
     cea:	90 91 c1 02 	lds	r25, 0x02C1
     cee:	01 96       	adiw	r24, 0x01	; 1
     cf0:	90 93 c1 02 	sts	0x02C1, r25
     cf4:	80 93 c0 02 	sts	0x02C0, r24
		if(stopwatches.watches & STOPWATCH5)
     cf8:	80 91 b9 02 	lds	r24, 0x02B9
     cfc:	84 ff       	sbrs	r24, 4
     cfe:	09 c0       	rjmp	.+18     	; 0xd12 <__vector_10+0xbe>
			stopwatches.watch5++;
     d00:	80 91 c2 02 	lds	r24, 0x02C2
     d04:	90 91 c3 02 	lds	r25, 0x02C3
     d08:	01 96       	adiw	r24, 0x01	; 1
     d0a:	90 93 c3 02 	sts	0x02C3, r25
     d0e:	80 93 c2 02 	sts	0x02C2, r24
		if(stopwatches.watches & STOPWATCH6)
     d12:	80 91 b9 02 	lds	r24, 0x02B9
     d16:	85 ff       	sbrs	r24, 5
     d18:	09 c0       	rjmp	.+18     	; 0xd2c <__vector_10+0xd8>
			stopwatches.watch6++;
     d1a:	80 91 c4 02 	lds	r24, 0x02C4
     d1e:	90 91 c5 02 	lds	r25, 0x02C5
     d22:	01 96       	adiw	r24, 0x01	; 1
     d24:	90 93 c5 02 	sts	0x02C5, r25
     d28:	80 93 c4 02 	sts	0x02C4, r24
		if(stopwatches.watches & STOPWATCH7)
     d2c:	80 91 b9 02 	lds	r24, 0x02B9
     d30:	86 ff       	sbrs	r24, 6
     d32:	09 c0       	rjmp	.+18     	; 0xd46 <__vector_10+0xf2>
			stopwatches.watch7++;
     d34:	80 91 c6 02 	lds	r24, 0x02C6
     d38:	90 91 c7 02 	lds	r25, 0x02C7
     d3c:	01 96       	adiw	r24, 0x01	; 1
     d3e:	90 93 c7 02 	sts	0x02C7, r25
     d42:	80 93 c6 02 	sts	0x02C6, r24
		if(stopwatches.watches & STOPWATCH8)
     d46:	80 91 b9 02 	lds	r24, 0x02B9
     d4a:	87 ff       	sbrs	r24, 7
     d4c:	09 c0       	rjmp	.+18     	; 0xd60 <__vector_10+0x10c>
			stopwatches.watch8++;
     d4e:	80 91 c8 02 	lds	r24, 0x02C8
     d52:	90 91 c9 02 	lds	r25, 0x02C9
     d56:	01 96       	adiw	r24, 0x01	; 1
     d58:	90 93 c9 02 	sts	0x02C9, r25
     d5c:	80 93 c8 02 	sts	0x02C8, r24

		// Sound generation timing:
		if(controlStatus.beep) {
     d60:	80 91 a7 02 	lds	r24, 0x02A7
     d64:	80 ff       	sbrs	r24, 0
     d66:	16 c0       	rjmp	.+44     	; 0xd94 <__vector_10+0x140>
			if(sound_timer < 1) { // sound_timer * 1ms
     d68:	80 91 cd 02 	lds	r24, 0x02CD
     d6c:	90 91 ce 02 	lds	r25, 0x02CE
     d70:	89 2b       	or	r24, r25
     d72:	39 f4       	brne	.+14     	; 0xd82 <__vector_10+0x12e>
				TCCR2 = 0;
     d74:	15 bc       	out	0x25, r1	; 37
				controlStatus.beep = false;
     d76:	80 91 a7 02 	lds	r24, 0x02A7
     d7a:	8e 7f       	andi	r24, 0xFE	; 254
     d7c:	80 93 a7 02 	sts	0x02A7, r24
     d80:	09 c0       	rjmp	.+18     	; 0xd94 <__vector_10+0x140>
			}
			else
				sound_timer--;
     d82:	80 91 cd 02 	lds	r24, 0x02CD
     d86:	90 91 ce 02 	lds	r25, 0x02CE
     d8a:	01 97       	sbiw	r24, 0x01	; 1
     d8c:	90 93 ce 02 	sts	0x02CE, r25
     d90:	80 93 cd 02 	sts	0x02CD, r24
		}
		
		ms_timer = 0;
     d94:	10 92 cc 02 	sts	0x02CC, r1
	}
}
     d98:	9f 91       	pop	r25
     d9a:	8f 91       	pop	r24
     d9c:	0f 90       	pop	r0
     d9e:	0f be       	out	0x3f, r0	; 63
     da0:	0f 90       	pop	r0
     da2:	1f 90       	pop	r1
     da4:	18 95       	reti

00000da6 <beep>:
 * sounds when you need to do other things at the same
 * time... 
 */
void beep(uint8_t pitch, uint16_t time)
{
	controlStatus.beep = true;
     da6:	90 91 a7 02 	lds	r25, 0x02A7
     daa:	91 60       	ori	r25, 0x01	; 1
     dac:	90 93 a7 02 	sts	0x02A7, r25
	sound_timer = time;
     db0:	70 93 ce 02 	sts	0x02CE, r23
     db4:	60 93 cd 02 	sts	0x02CD, r22
	OCR2 = 255-pitch;
     db8:	80 95       	com	r24
     dba:	83 bd       	out	0x23, r24	; 35
	TCCR2 =  (1 << WGM21) | (1 << COM20) | (1 << CS22) | (1 << CS21);
     dbc:	8e e1       	ldi	r24, 0x1E	; 30
     dbe:	85 bd       	out	0x25, r24	; 37
     dc0:	08 95       	ret

00000dc2 <setBeeperPitch>:
 * would sound bad if the beeper turns of for a very short time
 * in between - such as alarm tones or special melodies etc. 
 */
void setBeeperPitch(uint8_t pitch)
{
	controlStatus.beep = false;
     dc2:	90 91 a7 02 	lds	r25, 0x02A7
     dc6:	9e 7f       	andi	r25, 0xFE	; 254
     dc8:	90 93 a7 02 	sts	0x02A7, r25
	OCR2 = 255-pitch;
     dcc:	98 2f       	mov	r25, r24
     dce:	90 95       	com	r25
     dd0:	93 bd       	out	0x23, r25	; 35
	if(pitch) 
     dd2:	88 23       	and	r24, r24
     dd4:	19 f0       	breq	.+6      	; 0xddc <setBeeperPitch+0x1a>
		TCCR2 =  (1 << WGM21) | (1 << COM20) | (1 << CS22) | (1 << CS21);	
     dd6:	8e e1       	ldi	r24, 0x1E	; 30
     dd8:	85 bd       	out	0x25, r24	; 37
     dda:	08 95       	ret
	else 
		TCCR2 = 0;
     ddc:	15 bc       	out	0x25, r1	; 37
     dde:	08 95       	ret

00000de0 <sleep>:
 *		// The maximum delay is:
 *		sleep(255); // delay 255 * 100us = 25500us = 25.5ms
 */
void sleep(uint8_t time)
{
	delay_timer = 0;
     de0:	10 92 cb 02 	sts	0x02CB, r1
	while (delay_timer <= time+1);
     de4:	90 e0       	ldi	r25, 0x00	; 0
     de6:	01 96       	adiw	r24, 0x01	; 1
     de8:	20 91 cb 02 	lds	r18, 0x02CB
     dec:	30 e0       	ldi	r19, 0x00	; 0
     dee:	82 17       	cp	r24, r18
     df0:	93 07       	cpc	r25, r19
     df2:	d4 f7       	brge	.-12     	; 0xde8 <sleep+0x8>
}
     df4:	08 95       	ret

00000df6 <mSleep>:
 *      mSleep(100); // delay 100 * 1ms = 100ms = 0.1s
 *		mSleep(1000); // delay 1000 * 1ms = 1000ms = 1s
 *
 */
void mSleep(uint16_t time)
{
     df6:	cf 93       	push	r28
     df8:	df 93       	push	r29
     dfa:	ec 01       	movw	r28, r24
	while (time--) sleep(10);
     dfc:	20 97       	sbiw	r28, 0x00	; 0
     dfe:	29 f0       	breq	.+10     	; 0xe0a <mSleep+0x14>
     e00:	8a e0       	ldi	r24, 0x0A	; 10
     e02:	0e 94 f0 06 	call	0xde0	; 0xde0 <sleep>
     e06:	21 97       	sbiw	r28, 0x01	; 1
     e08:	f9 cf       	rjmp	.-14     	; 0xdfc <mSleep+0x6>
}
     e0a:	df 91       	pop	r29
     e0c:	cf 91       	pop	r28
     e0e:	08 95       	ret

00000e10 <dischargePeakDetector>:
 * used for the Microphone. This is required to remove any previous
 * charge from the capacitor. 
 */
void dischargePeakDetector(void)
{
	DDRA |= MIC;
     e10:	d0 9a       	sbi	0x1a, 0	; 26
	PORTA &= ~MIC;
     e12:	d8 98       	cbi	0x1b, 0	; 27
	mSleep(1);
     e14:	81 e0       	ldi	r24, 0x01	; 1
     e16:	90 e0       	ldi	r25, 0x00	; 0
     e18:	0e 94 fb 06 	call	0xdf6	; 0xdf6 <mSleep>
	DDRA &= ~MIC;
     e1c:	d0 98       	cbi	0x1a, 0	; 26
     e1e:	08 95       	ret

00000e20 <getMicrophonePeak>:
/**
 * Reads the Microphone peak detector and discharges it afterwards.
 * 
 */
uint16_t getMicrophonePeak(void)
{
     e20:	cf 93       	push	r28
     e22:	df 93       	push	r29
     e24:	00 d0       	rcall	.+0      	; 0xe26 <getMicrophonePeak+0x6>
     e26:	cd b7       	in	r28, 0x3d	; 61
     e28:	de b7       	in	r29, 0x3e	; 62
	uint16_t tmp;
	tmp = readADC(ADC_MIC);
     e2a:	80 e0       	ldi	r24, 0x00	; 0
     e2c:	0e 94 f4 04 	call	0x9e8	; 0x9e8 <readADC>
	if(tmp > 4) 
     e30:	85 30       	cpi	r24, 0x05	; 5
     e32:	91 05       	cpc	r25, r1
     e34:	30 f0       	brcs	.+12     	; 0xe42 <getMicrophonePeak+0x22>
		dischargePeakDetector();
     e36:	89 83       	std	Y+1, r24	; 0x01
     e38:	9a 83       	std	Y+2, r25	; 0x02
     e3a:	0e 94 08 07 	call	0xe10	; 0xe10 <dischargePeakDetector>
     e3e:	9a 81       	ldd	r25, Y+2	; 0x02
     e40:	89 81       	ldd	r24, Y+1	; 0x01
	return tmp;
}
     e42:	0f 90       	pop	r0
     e44:	0f 90       	pop	r0
     e46:	df 91       	pop	r29
     e48:	cf 91       	pop	r28
     e4a:	08 95       	ret

00000e4c <delayCycles>:
 * Example:
 * 	delayCycles(1000); // Delays for *about* 1000 instruction cycles
 */
void delayCycles(uint16_t dly)
{
	while(dly--) nop();
     e4c:	01 97       	sbiw	r24, 0x01	; 1
     e4e:	10 f0       	brcs	.+4      	; 0xe54 <delayCycles+0x8>
     e50:	00 00       	nop
     e52:	fc cf       	rjmp	.-8      	; 0xe4c <delayCycles>
}
     e54:	08 95       	ret

00000e56 <setLCDD>:
 * enable line of the LCD to 'inform' the LCD about the new data.
 *
 */
void setLCDD(uint8_t lcdd)
{
	externalPort.LCDD = lcdd;
     e56:	82 95       	swap	r24
     e58:	80 7f       	andi	r24, 0xF0	; 240
     e5a:	90 91 ca 02 	lds	r25, 0x02CA
     e5e:	9f 70       	andi	r25, 0x0F	; 15
     e60:	98 2b       	or	r25, r24
     e62:	90 93 ca 02 	sts	0x02CA, r25
	outputExt();
     e66:	0e 94 be 05 	call	0xb7c	; 0xb7c <outputExt>
	PORTB |= LCD_EN;
     e6a:	c4 9a       	sbi	0x18, 4	; 24
	delayCycles(50);
     e6c:	82 e3       	ldi	r24, 0x32	; 50
     e6e:	90 e0       	ldi	r25, 0x00	; 0
     e70:	0e 94 26 07 	call	0xe4c	; 0xe4c <delayCycles>
	PORTB &= ~LCD_EN;
     e74:	c4 98       	cbi	0x18, 4	; 24
     e76:	08 95       	ret

00000e78 <write4BitLCDData>:

/**
 * Write a 8bit-byte in two nibbles of 4bit to the LCD.
 */
void write4BitLCDData(uint8_t data)
{
     e78:	cf 93       	push	r28
     e7a:	c8 2f       	mov	r28, r24
	setLCDD(data >> 4);
     e7c:	82 95       	swap	r24
     e7e:	8f 70       	andi	r24, 0x0F	; 15
     e80:	0e 94 2b 07 	call	0xe56	; 0xe56 <setLCDD>
	setLCDD(data);
     e84:	8c 2f       	mov	r24, r28
     e86:	0e 94 2b 07 	call	0xe56	; 0xe56 <setLCDD>
	delayCycles(150);
     e8a:	86 e9       	ldi	r24, 0x96	; 150
     e8c:	90 e0       	ldi	r25, 0x00	; 0
}
     e8e:	cf 91       	pop	r28
 */
void write4BitLCDData(uint8_t data)
{
	setLCDD(data >> 4);
	setLCDD(data);
	delayCycles(150);
     e90:	0c 94 26 07 	jmp	0xe4c	; 0xe4c <delayCycles>

00000e94 <writeLCDCommand>:
/**
 * Write a command to the LCD.
 */
void writeLCDCommand(uint8_t cmd)
{
	PORTB &= ~LCD_RS;
     e94:	c3 98       	cbi	0x18, 3	; 24
	write4BitLCDData(cmd);
     e96:	0e 94 3c 07 	call	0xe78	; 0xe78 <write4BitLCDData>
	delayCycles(150);
     e9a:	86 e9       	ldi	r24, 0x96	; 150
     e9c:	90 e0       	ldi	r25, 0x00	; 0
     e9e:	0c 94 26 07 	jmp	0xe4c	; 0xe4c <delayCycles>

00000ea2 <setCursorPosLCD>:
/**
 * Sets the cursor position on LCD.
 */
void setCursorPosLCD(uint8_t line, uint8_t pos)
{
	pos |= 128;
     ea2:	60 68       	ori	r22, 0x80	; 128
	if(line==1) pos += 0x40;
     ea4:	81 30       	cpi	r24, 0x01	; 1
     ea6:	09 f4       	brne	.+2      	; 0xeaa <setCursorPosLCD+0x8>
     ea8:	60 5c       	subi	r22, 0xC0	; 192
	writeLCDCommand(pos);
     eaa:	86 2f       	mov	r24, r22
     eac:	0c 94 4a 07 	jmp	0xe94	; 0xe94 <writeLCDCommand>

00000eb0 <initLCD>:
 */
void initLCD(void)
{
	//delayCycles(34000); No need for Power ON delay as usually the
	// Bootloader should have been executed before...
	setLCDD(0b0011);
     eb0:	83 e0       	ldi	r24, 0x03	; 3
     eb2:	0e 94 2b 07 	call	0xe56	; 0xe56 <setLCDD>
	delayCycles(18000);
     eb6:	80 e5       	ldi	r24, 0x50	; 80
     eb8:	96 e4       	ldi	r25, 0x46	; 70
     eba:	0e 94 26 07 	call	0xe4c	; 0xe4c <delayCycles>
	setLCDD(0b0011);
     ebe:	83 e0       	ldi	r24, 0x03	; 3
     ec0:	0e 94 2b 07 	call	0xe56	; 0xe56 <setLCDD>
	delayCycles(5500);
     ec4:	8c e7       	ldi	r24, 0x7C	; 124
     ec6:	95 e1       	ldi	r25, 0x15	; 21
     ec8:	0e 94 26 07 	call	0xe4c	; 0xe4c <delayCycles>
	setLCDD(0b0011);
     ecc:	83 e0       	ldi	r24, 0x03	; 3
     ece:	0e 94 2b 07 	call	0xe56	; 0xe56 <setLCDD>
	delayCycles(5500);
     ed2:	8c e7       	ldi	r24, 0x7C	; 124
     ed4:	95 e1       	ldi	r25, 0x15	; 21
     ed6:	0e 94 26 07 	call	0xe4c	; 0xe4c <delayCycles>
	setLCDD(0b0010);
     eda:	82 e0       	ldi	r24, 0x02	; 2
     edc:	0e 94 2b 07 	call	0xe56	; 0xe56 <setLCDD>
	delayCycles(5500);
     ee0:	8c e7       	ldi	r24, 0x7C	; 124
     ee2:	95 e1       	ldi	r25, 0x15	; 21
     ee4:	0e 94 26 07 	call	0xe4c	; 0xe4c <delayCycles>
	writeLCDCommand(0b00101000);
     ee8:	88 e2       	ldi	r24, 0x28	; 40
     eea:	0e 94 4a 07 	call	0xe94	; 0xe94 <writeLCDCommand>
	delayCycles(5500);
     eee:	8c e7       	ldi	r24, 0x7C	; 124
     ef0:	95 e1       	ldi	r25, 0x15	; 21
     ef2:	0e 94 26 07 	call	0xe4c	; 0xe4c <delayCycles>
	writeLCDCommand(0b00001000);
     ef6:	88 e0       	ldi	r24, 0x08	; 8
     ef8:	0e 94 4a 07 	call	0xe94	; 0xe94 <writeLCDCommand>
	delayCycles(5500);
     efc:	8c e7       	ldi	r24, 0x7C	; 124
     efe:	95 e1       	ldi	r25, 0x15	; 21
     f00:	0e 94 26 07 	call	0xe4c	; 0xe4c <delayCycles>
	writeLCDCommand(0b00000001);
     f04:	81 e0       	ldi	r24, 0x01	; 1
     f06:	0e 94 4a 07 	call	0xe94	; 0xe94 <writeLCDCommand>
	delayCycles(5500);
     f0a:	8c e7       	ldi	r24, 0x7C	; 124
     f0c:	95 e1       	ldi	r25, 0x15	; 21
     f0e:	0e 94 26 07 	call	0xe4c	; 0xe4c <delayCycles>
	writeLCDCommand(0b00000010);
     f12:	82 e0       	ldi	r24, 0x02	; 2
     f14:	0e 94 4a 07 	call	0xe94	; 0xe94 <writeLCDCommand>
	delayCycles(5500);
     f18:	8c e7       	ldi	r24, 0x7C	; 124
     f1a:	95 e1       	ldi	r25, 0x15	; 21
     f1c:	0e 94 26 07 	call	0xe4c	; 0xe4c <delayCycles>
	writeLCDCommand(0b00001100);
     f20:	8c e0       	ldi	r24, 0x0C	; 12
     f22:	0e 94 4a 07 	call	0xe94	; 0xe94 <writeLCDCommand>
	delayCycles(5500);
     f26:	8c e7       	ldi	r24, 0x7C	; 124
     f28:	95 e1       	ldi	r25, 0x15	; 21
     f2a:	0c 94 26 07 	jmp	0xe4c	; 0xe4c <delayCycles>

00000f2e <clearLCD>:
/**
 * Clears the whole LCD!
 */
void clearLCD(void)
{
	writeLCDCommand(0b00000001);
     f2e:	81 e0       	ldi	r24, 0x01	; 1
     f30:	0e 94 4a 07 	call	0xe94	; 0xe94 <writeLCDCommand>
	delayCycles(5500);
     f34:	8c e7       	ldi	r24, 0x7C	; 124
     f36:	95 e1       	ldi	r25, 0x15	; 21
     f38:	0c 94 26 07 	jmp	0xe4c	; 0xe4c <delayCycles>

00000f3c <writeCharLCD>:
 *			use setCursorPos function to move the cursor to a 
 *			different location!
 */
void writeCharLCD(uint8_t ch)
{
	PORTB |= LCD_RS;
     f3c:	c3 9a       	sbi	0x18, 3	; 24
	write4BitLCDData(ch);
     f3e:	0e 94 3c 07 	call	0xe78	; 0xe78 <write4BitLCDData>
	delayCycles(50);
     f42:	82 e3       	ldi	r24, 0x32	; 50
     f44:	90 e0       	ldi	r25, 0x00	; 0
     f46:	0c 94 26 07 	jmp	0xe4c	; 0xe4c <delayCycles>

00000f4a <writeNStringLCD_P>:
 *			// you can simply write:
 *			writeStringLCD_P("RP6 Control");
 *
 */
void writeNStringLCD_P(const char *pstring)
{
     f4a:	cf 93       	push	r28
     f4c:	df 93       	push	r29
     f4e:	fc 01       	movw	r30, r24
    uint8_t c;
    for (;(c = pgm_read_byte_near(pstring++));writeCharLCD(c));
     f50:	84 91       	lpm	r24, Z
     f52:	ef 01       	movw	r28, r30
     f54:	21 96       	adiw	r28, 0x01	; 1
     f56:	88 23       	and	r24, r24
     f58:	21 f0       	breq	.+8      	; 0xf62 <writeNStringLCD_P+0x18>
     f5a:	0e 94 9e 07 	call	0xf3c	; 0xf3c <writeCharLCD>
     f5e:	fe 01       	movw	r30, r28
     f60:	f7 cf       	rjmp	.-18     	; 0xf50 <writeNStringLCD_P+0x6>
}
     f62:	df 91       	pop	r29
     f64:	cf 91       	pop	r28
     f66:	08 95       	ret

00000f68 <_showScreenLCD_P>:
 * This function is useful for displaying text screens on the LCD.
 * It clears the whole LCD and writes the two Strings to line 1 and
 * line 2.
 */
void _showScreenLCD_P(const char *line1, const char *line2)
{
     f68:	0f 93       	push	r16
     f6a:	1f 93       	push	r17
     f6c:	cf 93       	push	r28
     f6e:	df 93       	push	r29
     f70:	00 d0       	rcall	.+0      	; 0xf72 <_showScreenLCD_P+0xa>
     f72:	cd b7       	in	r28, 0x3d	; 61
     f74:	de b7       	in	r29, 0x3e	; 62
     f76:	8b 01       	movw	r16, r22
	clearLCD();
     f78:	89 83       	std	Y+1, r24	; 0x01
     f7a:	9a 83       	std	Y+2, r25	; 0x02
     f7c:	0e 94 97 07 	call	0xf2e	; 0xf2e <clearLCD>
	writeNStringLCD_P(line1);
     f80:	89 81       	ldd	r24, Y+1	; 0x01
     f82:	9a 81       	ldd	r25, Y+2	; 0x02
     f84:	0e 94 a5 07 	call	0xf4a	; 0xf4a <writeNStringLCD_P>
 */
void setCursorPosLCD(uint8_t line, uint8_t pos)
{
	pos |= 128;
	if(line==1) pos += 0x40;
	writeLCDCommand(pos);
     f88:	80 ec       	ldi	r24, 0xC0	; 192
     f8a:	0e 94 4a 07 	call	0xe94	; 0xe94 <writeLCDCommand>
void _showScreenLCD_P(const char *line1, const char *line2)
{
	clearLCD();
	writeNStringLCD_P(line1);
	setCursorPosLCD(1, 0);
	writeNStringLCD_P(line2);
     f8e:	c8 01       	movw	r24, r16
}
     f90:	0f 90       	pop	r0
     f92:	0f 90       	pop	r0
     f94:	df 91       	pop	r29
     f96:	cf 91       	pop	r28
     f98:	1f 91       	pop	r17
     f9a:	0f 91       	pop	r16
void _showScreenLCD_P(const char *line1, const char *line2)
{
	clearLCD();
	writeNStringLCD_P(line1);
	setCursorPosLCD(1, 0);
	writeNStringLCD_P(line2);
     f9c:	0c 94 a5 07 	jmp	0xf4a	; 0xf4a <writeNStringLCD_P>

00000fa0 <writeStringLCD>:

/**
 * Writes a String from SRAM to the LCD.
 */
void writeStringLCD(char *string)
{
     fa0:	cf 93       	push	r28
     fa2:	df 93       	push	r29
     fa4:	ec 01       	movw	r28, r24
	while(*string)
     fa6:	89 91       	ld	r24, Y+
     fa8:	88 23       	and	r24, r24
     faa:	19 f0       	breq	.+6      	; 0xfb2 <writeStringLCD+0x12>
		writeCharLCD(*string++);
     fac:	0e 94 9e 07 	call	0xf3c	; 0xf3c <writeCharLCD>
     fb0:	fa cf       	rjmp	.-12     	; 0xfa6 <writeStringLCD+0x6>
}
     fb2:	df 91       	pop	r29
     fb4:	cf 91       	pop	r28
     fb6:	08 95       	ret

00000fb8 <writeIntegerLCD>:
 *			writeInteger(511,OCT);		// Ocal
 *			writeInteger(0b11010111,BIN); // Binary
 */
void writeIntegerLCD(int16_t number, uint8_t base)
{
	itoa(number, &lcd_tmp_buffer[0], base);
     fb8:	46 2f       	mov	r20, r22
     fba:	50 e0       	ldi	r21, 0x00	; 0
     fbc:	68 ea       	ldi	r22, 0xA8	; 168
     fbe:	72 e0       	ldi	r23, 0x02	; 2
     fc0:	0e 94 8d 10 	call	0x211a	; 0x211a <itoa>
	writeStringLCD(&lcd_tmp_buffer[0]);
     fc4:	88 ea       	ldi	r24, 0xA8	; 168
     fc6:	92 e0       	ldi	r25, 0x02	; 2
     fc8:	0c 94 d0 07 	jmp	0xfa0	; 0xfa0 <writeStringLCD>

00000fcc <writeStringLengthLCD>:
 *			// would output: "Robot System"
 *			// No matter if the specified length is 40 characters!
 *
 */
void writeStringLengthLCD(char *string, uint8_t length, uint8_t offset)
{
     fcc:	0f 93       	push	r16
     fce:	1f 93       	push	r17
     fd0:	cf 93       	push	r28
     fd2:	df 93       	push	r29
     fd4:	1f 92       	push	r1
     fd6:	cd b7       	in	r28, 0x3d	; 61
     fd8:	de b7       	in	r29, 0x3e	; 62
	for(string = &string[offset]; *string && length; length--)
     fda:	8c 01       	movw	r16, r24
     fdc:	04 0f       	add	r16, r20
     fde:	11 1d       	adc	r17, r1
     fe0:	f8 01       	movw	r30, r16
     fe2:	81 91       	ld	r24, Z+
     fe4:	8f 01       	movw	r16, r30
     fe6:	88 23       	and	r24, r24
     fe8:	41 f0       	breq	.+16     	; 0xffa <writeStringLengthLCD+0x2e>
     fea:	66 23       	and	r22, r22
     fec:	31 f0       	breq	.+12     	; 0xffa <writeStringLengthLCD+0x2e>
		writeCharLCD(*string++);
     fee:	69 83       	std	Y+1, r22	; 0x01
     ff0:	0e 94 9e 07 	call	0xf3c	; 0xf3c <writeCharLCD>
 *			// No matter if the specified length is 40 characters!
 *
 */
void writeStringLengthLCD(char *string, uint8_t length, uint8_t offset)
{
	for(string = &string[offset]; *string && length; length--)
     ff4:	69 81       	ldd	r22, Y+1	; 0x01
     ff6:	61 50       	subi	r22, 0x01	; 1
     ff8:	f3 cf       	rjmp	.-26     	; 0xfe0 <writeStringLengthLCD+0x14>
		writeCharLCD(*string++);
}
     ffa:	0f 90       	pop	r0
     ffc:	df 91       	pop	r29
     ffe:	cf 91       	pop	r28
    1000:	1f 91       	pop	r17
    1002:	0f 91       	pop	r16
    1004:	08 95       	ret

00001006 <writeIntegerLengthLCD>:
 *			writeIntegerLength(511,OCT,4);		// Ocal
 *			writeIntegerLength(0b11010111,BIN,8); // Binary
 */
 
void writeIntegerLengthLCD(int16_t number, uint8_t base, uint8_t length)
{
    1006:	ef 92       	push	r14
    1008:	ff 92       	push	r15
    100a:	0f 93       	push	r16
    100c:	1f 93       	push	r17
    100e:	cf 93       	push	r28
    1010:	df 93       	push	r29
    1012:	cd b7       	in	r28, 0x3d	; 61
    1014:	de b7       	in	r29, 0x3e	; 62
    1016:	61 97       	sbiw	r28, 0x11	; 17
    1018:	0f b6       	in	r0, 0x3f	; 63
    101a:	f8 94       	cli
    101c:	de bf       	out	0x3e, r29	; 62
    101e:	0f be       	out	0x3f, r0	; 63
    1020:	cd bf       	out	0x3d, r28	; 61
    1022:	e4 2e       	mov	r14, r20
	char buffer[17];
	itoa(number, &buffer[0], base);
    1024:	46 2f       	mov	r20, r22
    1026:	50 e0       	ldi	r21, 0x00	; 0
    1028:	8e 01       	movw	r16, r28
    102a:	0f 5f       	subi	r16, 0xFF	; 255
    102c:	1f 4f       	sbci	r17, 0xFF	; 255
    102e:	b8 01       	movw	r22, r16
    1030:	0e 94 8d 10 	call	0x211a	; 0x211a <itoa>
	int8_t cnt = length - strlen(buffer);
    1034:	f8 01       	movw	r30, r16
    1036:	01 90       	ld	r0, Z+
    1038:	00 20       	and	r0, r0
    103a:	e9 f7       	brne	.-6      	; 0x1036 <writeIntegerLengthLCD+0x30>
    103c:	31 97       	sbiw	r30, 0x01	; 1
    103e:	e0 1b       	sub	r30, r16
    1040:	f1 0b       	sbc	r31, r17
    1042:	fe 2c       	mov	r15, r14
    1044:	fe 1a       	sub	r15, r30
	if(cnt > 0) {
    1046:	1f 14       	cp	r1, r15
    1048:	54 f4       	brge	.+20     	; 0x105e <writeIntegerLengthLCD+0x58>
    104a:	fa 94       	dec	r15
		for(; cnt > 0; cnt--, writeCharLCD('0'));
    104c:	80 e3       	ldi	r24, 0x30	; 48
    104e:	0e 94 9e 07 	call	0xf3c	; 0xf3c <writeCharLCD>
    1052:	f1 10       	cpse	r15, r1
    1054:	fa cf       	rjmp	.-12     	; 0x104a <writeIntegerLengthLCD+0x44>
		writeStringLCD(&buffer[0]);
    1056:	c8 01       	movw	r24, r16
    1058:	0e 94 d0 07 	call	0xfa0	; 0xfa0 <writeStringLCD>
    105c:	06 c0       	rjmp	.+12     	; 0x106a <writeIntegerLengthLCD+0x64>
	}
	else 
		writeStringLengthLCD(&buffer[0],length,-cnt);
    105e:	4f 2d       	mov	r20, r15
    1060:	41 95       	neg	r20
    1062:	6e 2d       	mov	r22, r14
    1064:	c8 01       	movw	r24, r16
    1066:	0e 94 e6 07 	call	0xfcc	; 0xfcc <writeStringLengthLCD>
}
    106a:	61 96       	adiw	r28, 0x11	; 17
    106c:	0f b6       	in	r0, 0x3f	; 63
    106e:	f8 94       	cli
    1070:	de bf       	out	0x3e, r29	; 62
    1072:	0f be       	out	0x3f, r0	; 63
    1074:	cd bf       	out	0x3d, r28	; 61
    1076:	df 91       	pop	r29
    1078:	cf 91       	pop	r28
    107a:	1f 91       	pop	r17
    107c:	0f 91       	pop	r16
    107e:	ff 90       	pop	r15
    1080:	ef 90       	pop	r14
    1082:	08 95       	ret

00001084 <clearPosLCD>:

/**
 * Clears some characters after the given position.
 */
void clearPosLCD(uint8_t line, uint8_t pos, uint8_t length)
{
    1084:	cf 93       	push	r28
    1086:	c4 2f       	mov	r28, r20
	setCursorPosLCD(line,pos);
    1088:	0e 94 51 07 	call	0xea2	; 0xea2 <setCursorPosLCD>
	while(length--)
    108c:	cc 23       	and	r28, r28
    108e:	29 f0       	breq	.+10     	; 0x109a <clearPosLCD+0x16>
		writeCharLCD(' ');
    1090:	80 e2       	ldi	r24, 0x20	; 32
    1092:	0e 94 9e 07 	call	0xf3c	; 0xf3c <writeCharLCD>
    1096:	c1 50       	subi	r28, 0x01	; 1
    1098:	f9 cf       	rjmp	.-14     	; 0x108c <clearPosLCD+0x8>
}
    109a:	cf 91       	pop	r28
    109c:	08 95       	ret

0000109e <initRP6Control>:
 *			}
 *
 */
void initRP6Control(void)
{
	portInit();		// Setup port directions and initial values.
    109e:	1b ba       	out	0x1b, r1	; 27
    10a0:	87 e0       	ldi	r24, 0x07	; 7
    10a2:	88 bb       	out	0x18, r24	; 24
    10a4:	8c ef       	ldi	r24, 0xFC	; 252
    10a6:	85 bb       	out	0x15, r24	; 21
    10a8:	81 e6       	ldi	r24, 0x61	; 97
    10aa:	82 bb       	out	0x12, r24	; 18
    10ac:	1a ba       	out	0x1a, r1	; 26
    10ae:	8b eb       	ldi	r24, 0xBB	; 187
    10b0:	87 bb       	out	0x17, r24	; 23
    10b2:	14 ba       	out	0x14, r1	; 20
    10b4:	82 e9       	ldi	r24, 0x92	; 146
    10b6:	81 bb       	out	0x11, r24	; 17
					// This is the most important step!

	cli();			// Disable global interrupts.
    10b8:	f8 94       	cli

	// UART:
	UBRRH = UBRR_BAUD_LOW >> 8;	// Setup UART: Baud is Low Speed
    10ba:	10 bc       	out	0x20, r1	; 32
	UBRRL = (uint8_t) UBRR_BAUD_LOW;
    10bc:	89 e1       	ldi	r24, 0x19	; 25
    10be:	89 b9       	out	0x09, r24	; 9
	UCSRA = 0x00;
    10c0:	1b b8       	out	0x0b, r1	; 11
    UCSRC = (1<<URSEL)|(1<<UCSZ1)|(1<<UCSZ0);
    10c2:	86 e8       	ldi	r24, 0x86	; 134
    10c4:	80 bd       	out	0x20, r24	; 32
    UCSRB = (1 << TXEN) | (1 << RXEN) | (1 << RXCIE);
    10c6:	88 e9       	ldi	r24, 0x98	; 152
    10c8:	8a b9       	out	0x0a, r24	; 10
	
	// Initialize ADC:
	ADMUX = 0; //external reference 
    10ca:	17 b8       	out	0x07, r1	; 7
	ADCSRA = (0<<ADIE) | (0<<ADEN) | (1<<ADPS2) | (1<<ADPS1) | (1<<ADIF);
    10cc:	86 e1       	ldi	r24, 0x16	; 22
    10ce:	86 b9       	out	0x06, r24	; 6
	SFIOR = 0;
    10d0:	10 be       	out	0x30, r1	; 48

	// Initialize External interrupts - all disabled:
	MCUCR = (1 << ISC11) | (1 << ISC10) | (1 << ISC01) | (1 << ISC00);
    10d2:	8f e0       	ldi	r24, 0x0F	; 15
    10d4:	85 bf       	out	0x35, r24	; 53
	GICR = (0 << INT2) | (0 << INT1) | (0 << INT0);
    10d6:	1b be       	out	0x3b, r1	; 59
	MCUCSR = (0 << ISC2);
    10d8:	14 be       	out	0x34, r1	; 52
	
	
	// 10kHz Timer 0:
	TCCR0 =   (0 << WGM00) 
    10da:	8a e0       	ldi	r24, 0x0A	; 10
    10dc:	83 bf       	out	0x33, r24	; 51
			| (0 << COM00) 
			| (0 << COM01) 
			| (0 << CS02)  
			| (1 << CS01) 
			| (0 << CS00);
	OCR0  = 199;
    10de:	87 ec       	ldi	r24, 0xC7	; 199
    10e0:	8c bf       	out	0x3c, r24	; 60
/*
	Timer 1 is free for your application!
*/

	// Timer 2 - used for beeper:
	TCCR2 =  0; 
    10e2:	15 bc       	out	0x25, r1	; 37
	OCR2  = 0xFF; 
    10e4:	8f ef       	ldi	r24, 0xFF	; 255
    10e6:	83 bd       	out	0x23, r24	; 35

	// Enable timer interrupts:
	TIMSK =   (1 << OCIE0); 
    10e8:	82 e0       	ldi	r24, 0x02	; 2
    10ea:	89 bf       	out	0x39, r24	; 57

	// SPI Master (SPI Mode 0, SCK Frequency is F_CPU/2, which means it is 8MHz 
	// on the RP6 CONTROL M32...):
	SPCR =    (0<<SPIE) 
    10ec:	80 e5       	ldi	r24, 0x50	; 80
    10ee:	8d b9       	out	0x0d, r24	; 13
			| (1<<MSTR) 
			| (0<<SPR0) 
			| (0<<SPR1) 
			| (0<<CPOL) 
			| (0<<CPHA);  
	SPSR = (1<<SPI2X);
    10f0:	81 e0       	ldi	r24, 0x01	; 1
    10f2:	8e b9       	out	0x0e, r24	; 14
	
	sei(); // Enable Global Interrupts
    10f4:	78 94       	sei
    10f6:	08 95       	ret

000010f8 <writeChar>:
 *			00123
 *
 */
void writeChar(char ch)
{
    while (!(UCSRA & (1<<UDRE)));
    10f8:	5d 9b       	sbis	0x0b, 5	; 11
    10fa:	fe cf       	rjmp	.-4      	; 0x10f8 <writeChar>
    UDR = (uint8_t)ch;
    10fc:	8c b9       	out	0x0c, r24	; 12
    10fe:	08 95       	ret

00001100 <writeString>:
 *
 *			writeString("RP6 Robot System\n");
 *
 */
void writeString(char *string)
{
    1100:	cf 93       	push	r28
    1102:	df 93       	push	r29
    1104:	ec 01       	movw	r28, r24
	while(*string)
    1106:	89 91       	ld	r24, Y+
    1108:	88 23       	and	r24, r24
    110a:	19 f0       	breq	.+6      	; 0x1112 <writeString+0x12>
		writeChar(*string++);
    110c:	0e 94 7c 08 	call	0x10f8	; 0x10f8 <writeChar>
    1110:	fa cf       	rjmp	.-12     	; 0x1106 <writeString+0x6>
}
    1112:	df 91       	pop	r29
    1114:	cf 91       	pop	r28
    1116:	08 95       	ret

00001118 <writeNStringP>:
 *			// you can simply write:
 *			writeString_P("RP6 Robot System\n");
 *
 */
void writeNStringP(const char *pstring)
{
    1118:	cf 93       	push	r28
    111a:	df 93       	push	r29
    111c:	fc 01       	movw	r30, r24
    uint8_t c;
    for (;(c = pgm_read_byte_near(pstring++));writeChar(c));
    111e:	84 91       	lpm	r24, Z
    1120:	ef 01       	movw	r28, r30
    1122:	21 96       	adiw	r28, 0x01	; 1
    1124:	88 23       	and	r24, r24
    1126:	21 f0       	breq	.+8      	; 0x1130 <writeNStringP+0x18>
    1128:	0e 94 7c 08 	call	0x10f8	; 0x10f8 <writeChar>
    112c:	fe 01       	movw	r30, r28
    112e:	f7 cf       	rjmp	.-18     	; 0x111e <writeNStringP+0x6>
}
    1130:	df 91       	pop	r29
    1132:	cf 91       	pop	r28
    1134:	08 95       	ret

00001136 <writeStringLength>:
 *			// would output: "Robot System\n"
 *			// No matter if the specified length is 40 characters!
 *
 */
void writeStringLength(char *string, uint8_t length, uint8_t offset)
{
    1136:	0f 93       	push	r16
    1138:	1f 93       	push	r17
    113a:	cf 93       	push	r28
    113c:	df 93       	push	r29
    113e:	1f 92       	push	r1
    1140:	cd b7       	in	r28, 0x3d	; 61
    1142:	de b7       	in	r29, 0x3e	; 62
	for(string = &string[offset]; *string && length; length--)
    1144:	8c 01       	movw	r16, r24
    1146:	04 0f       	add	r16, r20
    1148:	11 1d       	adc	r17, r1
    114a:	f8 01       	movw	r30, r16
    114c:	81 91       	ld	r24, Z+
    114e:	8f 01       	movw	r16, r30
    1150:	88 23       	and	r24, r24
    1152:	41 f0       	breq	.+16     	; 0x1164 <writeStringLength+0x2e>
    1154:	66 23       	and	r22, r22
    1156:	31 f0       	breq	.+12     	; 0x1164 <writeStringLength+0x2e>
		writeChar(*string++);
    1158:	69 83       	std	Y+1, r22	; 0x01
    115a:	0e 94 7c 08 	call	0x10f8	; 0x10f8 <writeChar>
 *			// No matter if the specified length is 40 characters!
 *
 */
void writeStringLength(char *string, uint8_t length, uint8_t offset)
{
	for(string = &string[offset]; *string && length; length--)
    115e:	69 81       	ldd	r22, Y+1	; 0x01
    1160:	61 50       	subi	r22, 0x01	; 1
    1162:	f3 cf       	rjmp	.-26     	; 0x114a <writeStringLength+0x14>
		writeChar(*string++);
}
    1164:	0f 90       	pop	r0
    1166:	df 91       	pop	r29
    1168:	cf 91       	pop	r28
    116a:	1f 91       	pop	r17
    116c:	0f 91       	pop	r16
    116e:	08 95       	ret

00001170 <writeInteger>:
 *			writeInteger(1024,DEC);  	// Decimal
 *			writeInteger(044,OCT);		// Ocal
 *			writeInteger(0b11010111,BIN); // Binary
 */
void writeInteger(int16_t number, uint8_t base)
{
    1170:	cf 93       	push	r28
    1172:	df 93       	push	r29
    1174:	cd b7       	in	r28, 0x3d	; 61
    1176:	de b7       	in	r29, 0x3e	; 62
    1178:	61 97       	sbiw	r28, 0x11	; 17
    117a:	0f b6       	in	r0, 0x3f	; 63
    117c:	f8 94       	cli
    117e:	de bf       	out	0x3e, r29	; 62
    1180:	0f be       	out	0x3f, r0	; 63
    1182:	cd bf       	out	0x3d, r28	; 61
	char buffer[17];
	itoa(number, &buffer[0], base);
    1184:	46 2f       	mov	r20, r22
    1186:	50 e0       	ldi	r21, 0x00	; 0
    1188:	be 01       	movw	r22, r28
    118a:	6f 5f       	subi	r22, 0xFF	; 255
    118c:	7f 4f       	sbci	r23, 0xFF	; 255
    118e:	0e 94 8d 10 	call	0x211a	; 0x211a <itoa>
	writeString(&buffer[0]);
    1192:	ce 01       	movw	r24, r28
    1194:	01 96       	adiw	r24, 0x01	; 1
    1196:	0e 94 80 08 	call	0x1100	; 0x1100 <writeString>
}
    119a:	61 96       	adiw	r28, 0x11	; 17
    119c:	0f b6       	in	r0, 0x3f	; 63
    119e:	f8 94       	cli
    11a0:	de bf       	out	0x3e, r29	; 62
    11a2:	0f be       	out	0x3f, r0	; 63
    11a4:	cd bf       	out	0x3d, r28	; 61
    11a6:	df 91       	pop	r29
    11a8:	cf 91       	pop	r28
    11aa:	08 95       	ret

000011ac <writeIntegerLength>:
 *			writeIntegerLength(1024,DEC,6);  	// Decimal
 *			writeIntegerLength(044,OCT,4);		// Ocal
 *			writeIntegerLength(0b11010111,BIN,8); // Binary
 */
void writeIntegerLength(int16_t number, uint8_t base, uint8_t length)
{
    11ac:	ef 92       	push	r14
    11ae:	ff 92       	push	r15
    11b0:	0f 93       	push	r16
    11b2:	1f 93       	push	r17
    11b4:	cf 93       	push	r28
    11b6:	df 93       	push	r29
    11b8:	cd b7       	in	r28, 0x3d	; 61
    11ba:	de b7       	in	r29, 0x3e	; 62
    11bc:	61 97       	sbiw	r28, 0x11	; 17
    11be:	0f b6       	in	r0, 0x3f	; 63
    11c0:	f8 94       	cli
    11c2:	de bf       	out	0x3e, r29	; 62
    11c4:	0f be       	out	0x3f, r0	; 63
    11c6:	cd bf       	out	0x3d, r28	; 61
    11c8:	e4 2e       	mov	r14, r20
	char buffer[17];
	itoa(number, &buffer[0], base);
    11ca:	46 2f       	mov	r20, r22
    11cc:	50 e0       	ldi	r21, 0x00	; 0
    11ce:	8e 01       	movw	r16, r28
    11d0:	0f 5f       	subi	r16, 0xFF	; 255
    11d2:	1f 4f       	sbci	r17, 0xFF	; 255
    11d4:	b8 01       	movw	r22, r16
    11d6:	0e 94 8d 10 	call	0x211a	; 0x211a <itoa>
	int8_t cnt = length - strlen(buffer);
    11da:	f8 01       	movw	r30, r16
    11dc:	01 90       	ld	r0, Z+
    11de:	00 20       	and	r0, r0
    11e0:	e9 f7       	brne	.-6      	; 0x11dc <writeIntegerLength+0x30>
    11e2:	31 97       	sbiw	r30, 0x01	; 1
    11e4:	e0 1b       	sub	r30, r16
    11e6:	f1 0b       	sbc	r31, r17
    11e8:	fe 2c       	mov	r15, r14
    11ea:	fe 1a       	sub	r15, r30
	if(cnt > 0) {
    11ec:	1f 14       	cp	r1, r15
    11ee:	54 f4       	brge	.+20     	; 0x1204 <writeIntegerLength+0x58>
    11f0:	fa 94       	dec	r15
		for(; cnt > 0; cnt--, writeChar('0'));
    11f2:	80 e3       	ldi	r24, 0x30	; 48
    11f4:	0e 94 7c 08 	call	0x10f8	; 0x10f8 <writeChar>
    11f8:	f1 10       	cpse	r15, r1
    11fa:	fa cf       	rjmp	.-12     	; 0x11f0 <writeIntegerLength+0x44>
		writeString(&buffer[0]);
    11fc:	c8 01       	movw	r24, r16
    11fe:	0e 94 80 08 	call	0x1100	; 0x1100 <writeString>
    1202:	06 c0       	rjmp	.+12     	; 0x1210 <writeIntegerLength+0x64>
	}
	else 
		writeStringLength(&buffer[0],length,-cnt);
    1204:	4f 2d       	mov	r20, r15
    1206:	41 95       	neg	r20
    1208:	6e 2d       	mov	r22, r14
    120a:	c8 01       	movw	r24, r16
    120c:	0e 94 9b 08 	call	0x1136	; 0x1136 <writeStringLength>
}
    1210:	61 96       	adiw	r28, 0x11	; 17
    1212:	0f b6       	in	r0, 0x3f	; 63
    1214:	f8 94       	cli
    1216:	de bf       	out	0x3e, r29	; 62
    1218:	0f be       	out	0x3f, r0	; 63
    121a:	cd bf       	out	0x3d, r28	; 61
    121c:	df 91       	pop	r29
    121e:	cf 91       	pop	r28
    1220:	1f 91       	pop	r17
    1222:	0f 91       	pop	r16
    1224:	ff 90       	pop	r15
    1226:	ef 90       	pop	r14
    1228:	08 95       	ret

0000122a <__vector_13>:
/**
 * UART receive ISR.
 * Handles reception to circular buffer.
 */
ISR(USART_RXC_vect)
{	
    122a:	1f 92       	push	r1
    122c:	0f 92       	push	r0
    122e:	0f b6       	in	r0, 0x3f	; 63
    1230:	0f 92       	push	r0
    1232:	11 24       	eor	r1, r1
    1234:	2f 93       	push	r18
    1236:	8f 93       	push	r24
    1238:	9f 93       	push	r25
    123a:	ef 93       	push	r30
    123c:	ff 93       	push	r31
	static volatile uint8_t dummy;
	if(((uint8_t)(write_size - read_size)) < UART_RECEIVE_BUFFER_SIZE) {
    123e:	90 91 ce 01 	lds	r25, 0x01CE
    1242:	80 91 cf 01 	lds	r24, 0x01CF
    1246:	29 2f       	mov	r18, r25
    1248:	28 1b       	sub	r18, r24
    124a:	20 32       	cpi	r18, 0x20	; 32
    124c:	a8 f4       	brcc	.+42     	; 0x1278 <__vector_13+0x4e>
		uart_receive_buffer[write_pos++] = UDR;
    124e:	e0 91 d0 01 	lds	r30, 0x01D0
    1252:	81 e0       	ldi	r24, 0x01	; 1
    1254:	8e 0f       	add	r24, r30
    1256:	80 93 d0 01 	sts	0x01D0, r24
    125a:	f0 e0       	ldi	r31, 0x00	; 0
    125c:	2c b1       	in	r18, 0x0c	; 12
    125e:	e0 53       	subi	r30, 0x30	; 48
    1260:	fd 4f       	sbci	r31, 0xFD	; 253
    1262:	20 83       	st	Z, r18
		write_size++;
    1264:	9f 5f       	subi	r25, 0xFF	; 255
    1266:	90 93 ce 01 	sts	0x01CE, r25
		if(write_pos > UART_RECEIVE_BUFFER_SIZE) 
    126a:	81 32       	cpi	r24, 0x21	; 33
    126c:	10 f0       	brcs	.+4      	; 0x1272 <__vector_13+0x48>
			write_pos = 0;
    126e:	10 92 d0 01 	sts	0x01D0, r1
		uart_status = UART_BUFFER_OK;
    1272:	10 92 cf 02 	sts	0x02CF, r1
    1276:	06 c0       	rjmp	.+12     	; 0x1284 <__vector_13+0x5a>
	}
	else {	
		dummy = UDR;
    1278:	8c b1       	in	r24, 0x0c	; 12
    127a:	80 93 d3 01 	sts	0x01D3, r24
		uart_status = UART_BUFFER_OVERFLOW;
    127e:	81 e0       	ldi	r24, 0x01	; 1
    1280:	80 93 cf 02 	sts	0x02CF, r24
	}
}
    1284:	ff 91       	pop	r31
    1286:	ef 91       	pop	r30
    1288:	9f 91       	pop	r25
    128a:	8f 91       	pop	r24
    128c:	2f 91       	pop	r18
    128e:	0f 90       	pop	r0
    1290:	0f be       	out	0x3f, r0	; 63
    1292:	0f 90       	pop	r0
    1294:	1f 90       	pop	r1
    1296:	18 95       	reti

00001298 <readChar>:
 * // [...]
 *
 */
char readChar(void)
{
	uart_status = UART_BUFFER_OK;
    1298:	10 92 cf 02 	sts	0x02CF, r1
	if(((uint8_t)(write_size - read_size)) > 0) {
    129c:	80 91 cf 01 	lds	r24, 0x01CF
    12a0:	90 91 ce 01 	lds	r25, 0x01CE
    12a4:	98 17       	cp	r25, r24
    12a6:	a1 f0       	breq	.+40     	; 0x12d0 <readChar+0x38>
		read_size++;
    12a8:	8f 5f       	subi	r24, 0xFF	; 255
    12aa:	80 93 cf 01 	sts	0x01CF, r24
		if(read_pos > UART_RECEIVE_BUFFER_SIZE) 
    12ae:	80 91 d1 01 	lds	r24, 0x01D1
    12b2:	81 32       	cpi	r24, 0x21	; 33
    12b4:	10 f0       	brcs	.+4      	; 0x12ba <readChar+0x22>
			read_pos = 0;
    12b6:	10 92 d1 01 	sts	0x01D1, r1
		return uart_receive_buffer[read_pos++];
    12ba:	e0 91 d1 01 	lds	r30, 0x01D1
    12be:	81 e0       	ldi	r24, 0x01	; 1
    12c0:	8e 0f       	add	r24, r30
    12c2:	80 93 d1 01 	sts	0x01D1, r24
    12c6:	f0 e0       	ldi	r31, 0x00	; 0
    12c8:	e0 53       	subi	r30, 0x30	; 48
    12ca:	fd 4f       	sbci	r31, 0xFD	; 253
    12cc:	80 81       	ld	r24, Z
    12ce:	08 95       	ret
	}
	return 0;
    12d0:	80 e0       	ldi	r24, 0x00	; 0
}
    12d2:	08 95       	ret

000012d4 <readChars>:
 * Just in case that there were fewer chars in the buffer...
 */
uint8_t readChars(char *buf, uint8_t numberOfChars)
{
   uint8_t i = 0;
   uart_status = UART_BUFFER_OK;
    12d4:	10 92 cf 02 	sts	0x02CF, r1
    12d8:	28 2f       	mov	r18, r24
   while(((uint8_t)(write_size - read_size))  > 0 && i < numberOfChars) {
    12da:	fc 01       	movw	r30, r24
    12dc:	8e 2f       	mov	r24, r30
    12de:	82 1b       	sub	r24, r18
    12e0:	90 91 cf 01 	lds	r25, 0x01CF
    12e4:	30 91 ce 01 	lds	r19, 0x01CE
    12e8:	39 17       	cp	r19, r25
    12ea:	b9 f0       	breq	.+46     	; 0x131a <readChars+0x46>
    12ec:	86 17       	cp	r24, r22
    12ee:	a8 f4       	brcc	.+42     	; 0x131a <readChars+0x46>
      read_size++;
    12f0:	9f 5f       	subi	r25, 0xFF	; 255
    12f2:	90 93 cf 01 	sts	0x01CF, r25
      buf[i++] = uart_receive_buffer[read_pos++];
    12f6:	a0 91 d1 01 	lds	r26, 0x01D1
    12fa:	81 e0       	ldi	r24, 0x01	; 1
    12fc:	8a 0f       	add	r24, r26
    12fe:	80 93 d1 01 	sts	0x01D1, r24
    1302:	b0 e0       	ldi	r27, 0x00	; 0
    1304:	a0 53       	subi	r26, 0x30	; 48
    1306:	bd 4f       	sbci	r27, 0xFD	; 253
    1308:	8c 91       	ld	r24, X
    130a:	81 93       	st	Z+, r24
      if(read_pos > UART_RECEIVE_BUFFER_SIZE)
    130c:	80 91 d1 01 	lds	r24, 0x01D1
    1310:	81 32       	cpi	r24, 0x21	; 33
    1312:	20 f3       	brcs	.-56     	; 0x12dc <readChars+0x8>
         read_pos = 0;
    1314:	10 92 d1 01 	sts	0x01D1, r1
    1318:	e1 cf       	rjmp	.-62     	; 0x12dc <readChars+0x8>
   }
   return i;
} 
    131a:	08 95       	ret

0000131c <getBufferLength>:
 * Example:
 * s. readChar function above!
 */
uint8_t getBufferLength(void)
{
	return (((uint8_t)(write_size - read_size)));
    131c:	80 91 ce 01 	lds	r24, 0x01CE
    1320:	90 91 cf 01 	lds	r25, 0x01CF
}
    1324:	89 1b       	sub	r24, r25
    1326:	08 95       	ret

00001328 <clearReceptionBuffer>:
 * interrupt for a short period of time. 
 */
void clearReceptionBuffer(void)
{
	static uint8_t dummy;
	UCSRB &= ~(1 << RXCIE); // disable UART RX Interrupt
    1328:	57 98       	cbi	0x0a, 7	; 10
	dummy = UDR;
    132a:	8c b1       	in	r24, 0x0c	; 12
    132c:	80 93 d2 01 	sts	0x01D2, r24
	read_pos = 0;
    1330:	10 92 d1 01 	sts	0x01D1, r1
	write_pos = 0; 
    1334:	10 92 d0 01 	sts	0x01D0, r1
	read_size = 0;
    1338:	10 92 cf 01 	sts	0x01CF, r1
	write_size = 0;
    133c:	10 92 ce 01 	sts	0x01CE, r1
	uart_status = UART_BUFFER_OK;
    1340:	10 92 cf 02 	sts	0x02CF, r1
	UCSRB |= (1 << RXCIE); // enable Interrupt again
    1344:	57 9a       	sbi	0x0a, 7	; 10
    1346:	08 95       	ret

00001348 <I2CTWI_requestedDataReady_DUMMY>:

/*****************************************************************************/
// TWI Event handlers
// These functions are used to receive Data or react on errors.

void I2CTWI_requestedDataReady_DUMMY(uint8_t requestID){}
    1348:	08 95       	ret

0000134a <I2CTWI_transmissionError_DUMMY>:
void I2CTWI_setRequestedDataReadyHandler(void (*requestedDataReadyHandler)(uint8_t))
{
	I2CTWI_requestedDataReadyHandler = requestedDataReadyHandler;
}

void I2CTWI_transmissionError_DUMMY(uint8_t requestID){}
    134a:	08 95       	ret

0000134c <__I2CTWI_initMaster>:
 * 							// but directly calculated with the formula in the
 *							// MEGA32 datasheet.
 */
void __I2CTWI_initMaster(uint8_t twi_bitrate)
{
	cli();
    134c:	f8 94       	cli
	TWBR = twi_bitrate;
    134e:	80 b9       	out	0x00, r24	; 0
	TWSR = 0x00;      // DO NOT USE PRESCALER! Otherwise you need to mask the
    1350:	11 b8       	out	0x01, r1	; 1
	TWDR = 0xFF;      // TWSR Prescaler bits everywhere TWSR is read!  	      
    1352:	8f ef       	ldi	r24, 0xFF	; 255
    1354:	83 b9       	out	0x03, r24	; 3
	TWCR = (1<<TWEN);
    1356:	84 e0       	ldi	r24, 0x04	; 4
    1358:	86 bf       	out	0x36, r24	; 54
	TWI_statusReg.lastTransOK = 1;
    135a:	80 91 db 01 	lds	r24, 0x01DB
    135e:	81 60       	ori	r24, 0x01	; 1
    1360:	80 93 db 01 	sts	0x01DB, r24
    sei();                      
    1364:	78 94       	sei
    1366:	08 95       	ret

00001368 <I2CTWI_setRequestedDataReadyHandler>:

void I2CTWI_requestedDataReady_DUMMY(uint8_t requestID){}
static void (*I2CTWI_requestedDataReadyHandler)(uint8_t) = I2CTWI_requestedDataReady_DUMMY;
void I2CTWI_setRequestedDataReadyHandler(void (*requestedDataReadyHandler)(uint8_t))
{
	I2CTWI_requestedDataReadyHandler = requestedDataReadyHandler;
    1368:	90 93 6b 00 	sts	0x006B, r25
    136c:	80 93 6a 00 	sts	0x006A, r24
    1370:	08 95       	ret

00001372 <I2CTWI_setTransmissionErrorHandler>:

void I2CTWI_transmissionError_DUMMY(uint8_t requestID){}
static void (*I2CTWI_transmissionErrorHandler)(uint8_t) = I2CTWI_transmissionError_DUMMY;
void I2CTWI_setTransmissionErrorHandler(void (*transmissionErrorHandler)(uint8_t))
{
	I2CTWI_transmissionErrorHandler = transmissionErrorHandler;
    1372:	90 93 69 00 	sts	0x0069, r25
    1376:	80 93 68 00 	sts	0x0068, r24
    137a:	08 95       	ret

0000137c <I2CTWI_delay>:
/**
 * A small delay that is required between some transfers. Without this delay
 * the transmission may fail.
 */
void I2CTWI_delay(void)
{
    137c:	cf 93       	push	r28
    137e:	df 93       	push	r29
    1380:	1f 92       	push	r1
    1382:	cd b7       	in	r28, 0x3d	; 61
    1384:	de b7       	in	r29, 0x3e	; 62
	volatile uint8_t dly = 150;
    1386:	86 e9       	ldi	r24, 0x96	; 150
    1388:	89 83       	std	Y+1, r24	; 0x01
	while(dly--);
    138a:	89 81       	ldd	r24, Y+1	; 0x01
    138c:	9f ef       	ldi	r25, 0xFF	; 255
    138e:	98 0f       	add	r25, r24
    1390:	99 83       	std	Y+1, r25	; 0x01
    1392:	81 11       	cpse	r24, r1
    1394:	fa cf       	rjmp	.-12     	; 0x138a <I2CTWI_delay+0xe>
}
    1396:	0f 90       	pop	r0
    1398:	df 91       	pop	r29
    139a:	cf 91       	pop	r28
    139c:	08 95       	ret

0000139e <I2CTWI_getReceivedData>:
 * It does not make sense to use this function anywhere else as you 
 * can not guarantee what is in the reception buffer...
 */
void I2CTWI_getReceivedData(uint8_t *msg, uint8_t msgSize)
{
	while(I2CTWI_isBusy());
    139e:	06 b6       	in	r0, 0x36	; 54
    13a0:	00 fc       	sbrc	r0, 0
    13a2:	fd cf       	rjmp	.-6      	; 0x139e <I2CTWI_getReceivedData>
	uint8_t i = 0;
	if(TWI_statusReg.lastTransOK)
    13a4:	20 91 db 01 	lds	r18, 0x01DB
    13a8:	20 ff       	sbrs	r18, 0
    13aa:	0b c0       	rjmp	.+22     	; 0x13c2 <I2CTWI_getReceivedData+0x24>
    13ac:	2f ed       	ldi	r18, 0xDF	; 223
    13ae:	31 e0       	ldi	r19, 0x01	; 1
    13b0:	fc 01       	movw	r30, r24
    13b2:	d9 01       	movw	r26, r18
    13b4:	8a 2f       	mov	r24, r26
    13b6:	82 1b       	sub	r24, r18
		for(; i < msgSize; i++)
    13b8:	86 17       	cp	r24, r22
    13ba:	18 f4       	brcc	.+6      	; 0x13c2 <I2CTWI_getReceivedData+0x24>
			msg[i] = I2CTWI_recbuf[i+1];
    13bc:	8d 91       	ld	r24, X+
    13be:	81 93       	st	Z+, r24
    13c0:	f9 cf       	rjmp	.-14     	; 0x13b4 <I2CTWI_getReceivedData+0x16>
    13c2:	08 95       	ret

000013c4 <I2CTWI_getState>:
 * This function returns the last TWI State / Error State. It waits until
 * TWI Module has completed last operation! 
 */
uint8_t I2CTWI_getState(void)
{
	while(I2CTWI_isBusy()); // Wait until TWI has completed the transmission.
    13c4:	06 b6       	in	r0, 0x36	; 54
    13c6:	00 fc       	sbrc	r0, 0
    13c8:	fd cf       	rjmp	.-6      	; 0x13c4 <I2CTWI_getState>
	return (TWI_TWSR_state); // Return error state.
}
    13ca:	80 91 da 01 	lds	r24, 0x01DA
    13ce:	08 95       	ret

000013d0 <task_I2CTWI>:
 * You have to call this functions frequently out of the
 * main loop. It calls the event handlers above automatically if data has been received.
 */
void task_I2CTWI(void)
{
	if (!I2CTWI_isBusy()) {
    13d0:	06 b6       	in	r0, 0x36	; 54
    13d2:	00 fc       	sbrc	r0, 0
    13d4:	5e c0       	rjmp	.+188    	; 0x1492 <task_I2CTWI+0xc2>
		if (TWI_statusReg.lastTransOK) {
    13d6:	80 91 db 01 	lds	r24, 0x01DB
    13da:	80 ff       	sbrs	r24, 0
    13dc:	42 c0       	rjmp	.+132    	; 0x1462 <task_I2CTWI+0x92>
			if(TWI_operation) {
    13de:	80 91 d4 01 	lds	r24, 0x01D4
    13e2:	88 23       	and	r24, r24
    13e4:	09 f4       	brne	.+2      	; 0x13e8 <task_I2CTWI+0x18>
    13e6:	55 c0       	rjmp	.+170    	; 0x1492 <task_I2CTWI+0xc2>
				if(TWI_operation == I2CTWI_SEND_REGISTER) {
    13e8:	81 30       	cpi	r24, 0x01	; 1
    13ea:	91 f4       	brne	.+36     	; 0x1410 <task_I2CTWI+0x40>
					I2CTWI_delay();
    13ec:	0e 94 be 09 	call	0x137c	; 0x137c <I2CTWI_delay>
					TWI_msgSize = 2;
    13f0:	82 e0       	ldi	r24, 0x02	; 2
    13f2:	80 93 dd 01 	sts	0x01DD, r24
					I2CTWI_buf[0] = I2CTWI_request_adr;
    13f6:	90 91 d9 01 	lds	r25, 0x01D9
    13fa:	90 93 0e 02 	sts	0x020E, r25
					I2CTWI_buf[1] = I2CTWI_request_reg;
    13fe:	90 91 d8 01 	lds	r25, 0x01D8
    1402:	90 93 0f 02 	sts	0x020F, r25
					TWI_statusReg.all = 0;
    1406:	10 92 db 01 	sts	0x01DB, r1
					TWCR = (1<<TWEN)|(1<<TWIE)|(1<<TWINT)|(0<<TWEA)|(1<<TWSTA)|(0<<TWSTO);
    140a:	95 ea       	ldi	r25, 0xA5	; 165
    140c:	96 bf       	out	0x36, r25	; 54
    140e:	15 c0       	rjmp	.+42     	; 0x143a <task_I2CTWI+0x6a>
					TWI_operation = I2CTWI_REQUEST_BYTES;
				}
				else if (TWI_operation == I2CTWI_REQUEST_BYTES) {
    1410:	82 30       	cpi	r24, 0x02	; 2
    1412:	b1 f4       	brne	.+44     	; 0x1440 <task_I2CTWI+0x70>
					I2CTWI_delay();
    1414:	0e 94 be 09 	call	0x137c	; 0x137c <I2CTWI_delay>
					TWI_msgSize = I2CTWI_request_size + 1;
    1418:	80 91 d7 01 	lds	r24, 0x01D7
    141c:	8f 5f       	subi	r24, 0xFF	; 255
    141e:	80 93 dd 01 	sts	0x01DD, r24
					I2CTWI_request_adr = I2CTWI_request_adr | TWI_READ;
    1422:	80 91 d9 01 	lds	r24, 0x01D9
    1426:	81 60       	ori	r24, 0x01	; 1
    1428:	80 93 d9 01 	sts	0x01D9, r24
					I2CTWI_buf[0]  = I2CTWI_request_adr | TWI_READ; 
    142c:	80 93 0e 02 	sts	0x020E, r24
					TWI_statusReg.all = 0;
    1430:	10 92 db 01 	sts	0x01DB, r1
					TWCR = (1<<TWEN)|(1<<TWIE)|(1<<TWINT)|(0<<TWEA)|(1<<TWSTA)|(0<<TWSTO);	
    1434:	85 ea       	ldi	r24, 0xA5	; 165
    1436:	86 bf       	out	0x36, r24	; 54
					TWI_operation = I2CTWI_READ_BYTES_FROM_BUFFER;
    1438:	83 e0       	ldi	r24, 0x03	; 3
    143a:	80 93 d4 01 	sts	0x01D4, r24
    143e:	08 95       	ret
				}
				else if (TWI_operation == I2CTWI_READ_BYTES_FROM_BUFFER) { 
    1440:	83 30       	cpi	r24, 0x03	; 3
    1442:	39 f5       	brne	.+78     	; 0x1492 <task_I2CTWI+0xc2>
					TWI_operation = I2CTWI_NO_OPERATION;
    1444:	10 92 d4 01 	sts	0x01D4, r1
					if(I2CTWI_requestID!=-1)
    1448:	80 91 d5 01 	lds	r24, 0x01D5
    144c:	90 91 d6 01 	lds	r25, 0x01D6
    1450:	8f 3f       	cpi	r24, 0xFF	; 255
    1452:	2f ef       	ldi	r18, 0xFF	; 255
    1454:	92 07       	cpc	r25, r18
    1456:	e9 f0       	breq	.+58     	; 0x1492 <task_I2CTWI+0xc2>
						I2CTWI_requestedDataReadyHandler(I2CTWI_requestID);
    1458:	e0 91 6a 00 	lds	r30, 0x006A
    145c:	f0 91 6b 00 	lds	r31, 0x006B
    1460:	17 c0       	rjmp	.+46     	; 0x1490 <task_I2CTWI+0xc0>
				}
			}
		}
		else {
			uint8_t errState = I2CTWI_getState();
    1462:	0e 94 e2 09 	call	0x13c4	; 0x13c4 <I2CTWI_getState>
			if(errState != 0) {
    1466:	88 23       	and	r24, r24
    1468:	a1 f0       	breq	.+40     	; 0x1492 <task_I2CTWI+0xc2>
				TWI_operation = I2CTWI_NO_OPERATION;
    146a:	10 92 d4 01 	sts	0x01D4, r1
				TWI_statusReg.lastTransOK = 1;
    146e:	90 91 db 01 	lds	r25, 0x01DB
    1472:	91 60       	ori	r25, 0x01	; 1
    1474:	90 93 db 01 	sts	0x01DB, r25
				I2CTWI_request_adr = 0;
    1478:	10 92 d9 01 	sts	0x01D9, r1
				I2CTWI_requestID = 0;
    147c:	10 92 d6 01 	sts	0x01D6, r1
    1480:	10 92 d5 01 	sts	0x01D5, r1
				I2CTWI_request_size = 0;
    1484:	10 92 d7 01 	sts	0x01D7, r1
				I2CTWI_transmissionErrorHandler(errState);
    1488:	e0 91 68 00 	lds	r30, 0x0068
    148c:	f0 91 69 00 	lds	r31, 0x0069
    1490:	09 94       	ijmp
    1492:	08 95       	ret

00001494 <I2CTWI_requestDataFromDevice>:
 * Requests a number of Bytes from the target device. You need to set a requestID 
 * to be able to identify the request after the data has been received and the 
 * "requestedDataReady" event handler is called.
 */
void I2CTWI_requestDataFromDevice(uint8_t targetAdr, uint8_t requestID, uint8_t numberOfBytes)
{	
    1494:	cf 93       	push	r28
    1496:	df 93       	push	r29
    1498:	00 d0       	rcall	.+0      	; 0x149a <I2CTWI_requestDataFromDevice+0x6>
    149a:	1f 92       	push	r1
    149c:	cd b7       	in	r28, 0x3d	; 61
    149e:	de b7       	in	r29, 0x3e	; 62
	while(I2CTWI_isBusy() || TWI_operation != I2CTWI_NO_OPERATION) task_I2CTWI();
    14a0:	06 b6       	in	r0, 0x36	; 54
    14a2:	00 fe       	sbrs	r0, 0
    14a4:	09 c0       	rjmp	.+18     	; 0x14b8 <I2CTWI_requestDataFromDevice+0x24>
    14a6:	4b 83       	std	Y+3, r20	; 0x03
    14a8:	6a 83       	std	Y+2, r22	; 0x02
    14aa:	89 83       	std	Y+1, r24	; 0x01
    14ac:	0e 94 e8 09 	call	0x13d0	; 0x13d0 <task_I2CTWI>
    14b0:	89 81       	ldd	r24, Y+1	; 0x01
    14b2:	6a 81       	ldd	r22, Y+2	; 0x02
    14b4:	4b 81       	ldd	r20, Y+3	; 0x03
    14b6:	f4 cf       	rjmp	.-24     	; 0x14a0 <I2CTWI_requestDataFromDevice+0xc>
    14b8:	90 91 d4 01 	lds	r25, 0x01D4
    14bc:	91 11       	cpse	r25, r1
    14be:	f3 cf       	rjmp	.-26     	; 0x14a6 <I2CTWI_requestDataFromDevice+0x12>
	TWI_operation = I2CTWI_REQUEST_BYTES;
    14c0:	92 e0       	ldi	r25, 0x02	; 2
    14c2:	90 93 d4 01 	sts	0x01D4, r25
	I2CTWI_request_adr = targetAdr;
    14c6:	80 93 d9 01 	sts	0x01D9, r24
	I2CTWI_requestID = (int16_t)requestID;
    14ca:	70 e0       	ldi	r23, 0x00	; 0
    14cc:	70 93 d6 01 	sts	0x01D6, r23
    14d0:	60 93 d5 01 	sts	0x01D5, r22
	I2CTWI_request_size = numberOfBytes;
    14d4:	40 93 d7 01 	sts	0x01D7, r20
}
    14d8:	0f 90       	pop	r0
    14da:	0f 90       	pop	r0
    14dc:	0f 90       	pop	r0
    14de:	df 91       	pop	r29
    14e0:	cf 91       	pop	r28
    14e2:	08 95       	ret

000014e4 <I2CTWI_requestRegisterFromDevice>:
 * that has to be read and transmits the register number before! 
 * This is neccessary for the reaction on interrupt requests of slave devices as this
 * function is non-blocking and thus very well suited for calls directly from ISRs. 
 */
void I2CTWI_requestRegisterFromDevice(uint8_t targetAdr, uint8_t requestID, uint8_t reg, uint8_t numberOfBytes)
{	
    14e4:	cf 93       	push	r28
    14e6:	df 93       	push	r29
    14e8:	00 d0       	rcall	.+0      	; 0x14ea <I2CTWI_requestRegisterFromDevice+0x6>
    14ea:	00 d0       	rcall	.+0      	; 0x14ec <I2CTWI_requestRegisterFromDevice+0x8>
    14ec:	cd b7       	in	r28, 0x3d	; 61
    14ee:	de b7       	in	r29, 0x3e	; 62
	while(I2CTWI_isBusy() || TWI_operation != I2CTWI_NO_OPERATION) task_I2CTWI();
    14f0:	06 b6       	in	r0, 0x36	; 54
    14f2:	00 fe       	sbrs	r0, 0
    14f4:	0b c0       	rjmp	.+22     	; 0x150c <I2CTWI_requestRegisterFromDevice+0x28>
    14f6:	2c 83       	std	Y+4, r18	; 0x04
    14f8:	4b 83       	std	Y+3, r20	; 0x03
    14fa:	6a 83       	std	Y+2, r22	; 0x02
    14fc:	89 83       	std	Y+1, r24	; 0x01
    14fe:	0e 94 e8 09 	call	0x13d0	; 0x13d0 <task_I2CTWI>
    1502:	89 81       	ldd	r24, Y+1	; 0x01
    1504:	6a 81       	ldd	r22, Y+2	; 0x02
    1506:	4b 81       	ldd	r20, Y+3	; 0x03
    1508:	2c 81       	ldd	r18, Y+4	; 0x04
    150a:	f2 cf       	rjmp	.-28     	; 0x14f0 <I2CTWI_requestRegisterFromDevice+0xc>
    150c:	90 91 d4 01 	lds	r25, 0x01D4
    1510:	91 11       	cpse	r25, r1
    1512:	f1 cf       	rjmp	.-30     	; 0x14f6 <I2CTWI_requestRegisterFromDevice+0x12>
	TWI_operation = I2CTWI_SEND_REGISTER;
    1514:	91 e0       	ldi	r25, 0x01	; 1
    1516:	90 93 d4 01 	sts	0x01D4, r25
	I2CTWI_requestID = (int16_t)requestID;
    151a:	70 e0       	ldi	r23, 0x00	; 0
    151c:	70 93 d6 01 	sts	0x01D6, r23
    1520:	60 93 d5 01 	sts	0x01D5, r22
	I2CTWI_request_adr = targetAdr;
    1524:	80 93 d9 01 	sts	0x01D9, r24
	I2CTWI_request_reg = reg;
    1528:	40 93 d8 01 	sts	0x01D8, r20
	I2CTWI_request_size = numberOfBytes;
    152c:	20 93 d7 01 	sts	0x01D7, r18
}
    1530:	0f 90       	pop	r0
    1532:	0f 90       	pop	r0
    1534:	0f 90       	pop	r0
    1536:	0f 90       	pop	r0
    1538:	df 91       	pop	r29
    153a:	cf 91       	pop	r28
    153c:	08 95       	ret

0000153e <I2CTWI_readRegisters>:
/**
 * Reads "numberOfBytes" from "targetAdr" Register "reg" into "messageBuffer". 
 * If the slave device supports auto increment, then it reads all subsequent registers of course! 
 */
void I2CTWI_readRegisters(uint8_t targetAdr, uint8_t reg, uint8_t * messageBuffer, uint8_t numberOfBytes)
{
    153e:	ef 92       	push	r14
    1540:	ff 92       	push	r15
    1542:	1f 93       	push	r17
    1544:	cf 93       	push	r28
    1546:	df 93       	push	r29
    1548:	00 d0       	rcall	.+0      	; 0x154a <I2CTWI_readRegisters+0xc>
    154a:	cd b7       	in	r28, 0x3d	; 61
    154c:	de b7       	in	r29, 0x3e	; 62
    154e:	7a 01       	movw	r14, r20
    1550:	12 2f       	mov	r17, r18
	while(I2CTWI_isBusy() || TWI_operation != I2CTWI_NO_OPERATION) task_I2CTWI();
    1552:	06 b6       	in	r0, 0x36	; 54
    1554:	00 fe       	sbrs	r0, 0
    1556:	07 c0       	rjmp	.+14     	; 0x1566 <I2CTWI_readRegisters+0x28>
    1558:	6a 83       	std	Y+2, r22	; 0x02
    155a:	89 83       	std	Y+1, r24	; 0x01
    155c:	0e 94 e8 09 	call	0x13d0	; 0x13d0 <task_I2CTWI>
    1560:	89 81       	ldd	r24, Y+1	; 0x01
    1562:	6a 81       	ldd	r22, Y+2	; 0x02
    1564:	f6 cf       	rjmp	.-20     	; 0x1552 <I2CTWI_readRegisters+0x14>
    1566:	90 91 d4 01 	lds	r25, 0x01D4
    156a:	91 11       	cpse	r25, r1
    156c:	f5 cf       	rjmp	.-22     	; 0x1558 <I2CTWI_readRegisters+0x1a>
	TWI_operation = I2CTWI_SEND_REGISTER;
    156e:	91 e0       	ldi	r25, 0x01	; 1
    1570:	90 93 d4 01 	sts	0x01D4, r25
	I2CTWI_request_adr = targetAdr;
    1574:	80 93 d9 01 	sts	0x01D9, r24
	I2CTWI_requestID = -1;
    1578:	8f ef       	ldi	r24, 0xFF	; 255
    157a:	9f ef       	ldi	r25, 0xFF	; 255
    157c:	90 93 d6 01 	sts	0x01D6, r25
    1580:	80 93 d5 01 	sts	0x01D5, r24
	I2CTWI_request_reg = reg;
    1584:	60 93 d8 01 	sts	0x01D8, r22
	I2CTWI_request_size = numberOfBytes;
    1588:	10 93 d7 01 	sts	0x01D7, r17
	while(I2CTWI_isBusy() || TWI_operation != I2CTWI_NO_OPERATION) task_I2CTWI();
    158c:	06 b6       	in	r0, 0x36	; 54
    158e:	00 fe       	sbrs	r0, 0
    1590:	03 c0       	rjmp	.+6      	; 0x1598 <I2CTWI_readRegisters+0x5a>
    1592:	0e 94 e8 09 	call	0x13d0	; 0x13d0 <task_I2CTWI>
    1596:	fa cf       	rjmp	.-12     	; 0x158c <I2CTWI_readRegisters+0x4e>
    1598:	80 91 d4 01 	lds	r24, 0x01D4
    159c:	81 11       	cpse	r24, r1
    159e:	f9 cf       	rjmp	.-14     	; 0x1592 <I2CTWI_readRegisters+0x54>
	if (TWI_statusReg.lastTransOK) 
    15a0:	80 91 db 01 	lds	r24, 0x01DB
    15a4:	80 ff       	sbrs	r24, 0
    15a6:	0c c0       	rjmp	.+24     	; 0x15c0 <I2CTWI_readRegisters+0x82>
		I2CTWI_getReceivedData(&messageBuffer[0], numberOfBytes+1);
    15a8:	61 e0       	ldi	r22, 0x01	; 1
    15aa:	61 0f       	add	r22, r17
    15ac:	c7 01       	movw	r24, r14
}
    15ae:	0f 90       	pop	r0
    15b0:	0f 90       	pop	r0
    15b2:	df 91       	pop	r29
    15b4:	cf 91       	pop	r28
    15b6:	1f 91       	pop	r17
    15b8:	ff 90       	pop	r15
    15ba:	ef 90       	pop	r14
	I2CTWI_requestID = -1;
	I2CTWI_request_reg = reg;
	I2CTWI_request_size = numberOfBytes;
	while(I2CTWI_isBusy() || TWI_operation != I2CTWI_NO_OPERATION) task_I2CTWI();
	if (TWI_statusReg.lastTransOK) 
		I2CTWI_getReceivedData(&messageBuffer[0], numberOfBytes+1);
    15bc:	0c 94 cf 09 	jmp	0x139e	; 0x139e <I2CTWI_getReceivedData>
}
    15c0:	0f 90       	pop	r0
    15c2:	0f 90       	pop	r0
    15c4:	df 91       	pop	r29
    15c6:	cf 91       	pop	r28
    15c8:	1f 91       	pop	r17
    15ca:	ff 90       	pop	r15
    15cc:	ef 90       	pop	r14
    15ce:	08 95       	ret

000015d0 <I2CTWI_readBytes>:
 * Same as readRegisters, but you need to make sure which register to read yourself - if there
 * are any registers at all in your slave device.  
 * 
 */
void I2CTWI_readBytes(uint8_t targetAdr, uint8_t * messageBuffer, uint8_t numberOfBytes)
{
    15d0:	0f 93       	push	r16
    15d2:	1f 93       	push	r17
    15d4:	cf 93       	push	r28
    15d6:	df 93       	push	r29
    15d8:	08 2f       	mov	r16, r24
    15da:	eb 01       	movw	r28, r22
    15dc:	14 2f       	mov	r17, r20
	while(I2CTWI_isBusy() || TWI_operation != I2CTWI_NO_OPERATION) task_I2CTWI();
    15de:	06 b6       	in	r0, 0x36	; 54
    15e0:	00 fe       	sbrs	r0, 0
    15e2:	03 c0       	rjmp	.+6      	; 0x15ea <I2CTWI_readBytes+0x1a>
    15e4:	0e 94 e8 09 	call	0x13d0	; 0x13d0 <task_I2CTWI>
    15e8:	fa cf       	rjmp	.-12     	; 0x15de <I2CTWI_readBytes+0xe>
    15ea:	80 91 d4 01 	lds	r24, 0x01D4
    15ee:	81 11       	cpse	r24, r1
    15f0:	f9 cf       	rjmp	.-14     	; 0x15e4 <I2CTWI_readBytes+0x14>
	I2CTWI_delay();
    15f2:	0e 94 be 09 	call	0x137c	; 0x137c <I2CTWI_delay>
	TWI_operation = I2CTWI_REQUEST_BYTES;
    15f6:	82 e0       	ldi	r24, 0x02	; 2
    15f8:	80 93 d4 01 	sts	0x01D4, r24
	I2CTWI_request_adr = targetAdr;
    15fc:	00 93 d9 01 	sts	0x01D9, r16
	I2CTWI_requestID = -1;
    1600:	8f ef       	ldi	r24, 0xFF	; 255
    1602:	9f ef       	ldi	r25, 0xFF	; 255
    1604:	90 93 d6 01 	sts	0x01D6, r25
    1608:	80 93 d5 01 	sts	0x01D5, r24
	I2CTWI_request_size = numberOfBytes;
    160c:	10 93 d7 01 	sts	0x01D7, r17
	while(I2CTWI_isBusy() || TWI_operation != I2CTWI_NO_OPERATION) task_I2CTWI();
    1610:	06 b6       	in	r0, 0x36	; 54
    1612:	00 fe       	sbrs	r0, 0
    1614:	03 c0       	rjmp	.+6      	; 0x161c <I2CTWI_readBytes+0x4c>
    1616:	0e 94 e8 09 	call	0x13d0	; 0x13d0 <task_I2CTWI>
    161a:	fa cf       	rjmp	.-12     	; 0x1610 <I2CTWI_readBytes+0x40>
    161c:	80 91 d4 01 	lds	r24, 0x01D4
    1620:	81 11       	cpse	r24, r1
    1622:	f9 cf       	rjmp	.-14     	; 0x1616 <I2CTWI_readBytes+0x46>
	if (TWI_statusReg.lastTransOK) 
    1624:	80 91 db 01 	lds	r24, 0x01DB
    1628:	80 ff       	sbrs	r24, 0
    162a:	09 c0       	rjmp	.+18     	; 0x163e <I2CTWI_readBytes+0x6e>
		I2CTWI_getReceivedData(&messageBuffer[0], numberOfBytes+1);
    162c:	61 e0       	ldi	r22, 0x01	; 1
    162e:	61 0f       	add	r22, r17
    1630:	ce 01       	movw	r24, r28
}
    1632:	df 91       	pop	r29
    1634:	cf 91       	pop	r28
    1636:	1f 91       	pop	r17
    1638:	0f 91       	pop	r16
	I2CTWI_request_adr = targetAdr;
	I2CTWI_requestID = -1;
	I2CTWI_request_size = numberOfBytes;
	while(I2CTWI_isBusy() || TWI_operation != I2CTWI_NO_OPERATION) task_I2CTWI();
	if (TWI_statusReg.lastTransOK) 
		I2CTWI_getReceivedData(&messageBuffer[0], numberOfBytes+1);
    163a:	0c 94 cf 09 	jmp	0x139e	; 0x139e <I2CTWI_getReceivedData>
}
    163e:	df 91       	pop	r29
    1640:	cf 91       	pop	r28
    1642:	1f 91       	pop	r17
    1644:	0f 91       	pop	r16
    1646:	08 95       	ret

00001648 <I2CTWI_readByte>:

/**
 * Reads a single byte from the slave device. 
 */
uint8_t I2CTWI_readByte(uint8_t targetAdr)
{
    1648:	cf 93       	push	r28
    164a:	c8 2f       	mov	r28, r24
	while(I2CTWI_isBusy() || TWI_operation != I2CTWI_NO_OPERATION) task_I2CTWI();
    164c:	06 b6       	in	r0, 0x36	; 54
    164e:	00 fe       	sbrs	r0, 0
    1650:	03 c0       	rjmp	.+6      	; 0x1658 <I2CTWI_readByte+0x10>
    1652:	0e 94 e8 09 	call	0x13d0	; 0x13d0 <task_I2CTWI>
    1656:	fa cf       	rjmp	.-12     	; 0x164c <I2CTWI_readByte+0x4>
    1658:	80 91 d4 01 	lds	r24, 0x01D4
    165c:	81 11       	cpse	r24, r1
    165e:	f9 cf       	rjmp	.-14     	; 0x1652 <I2CTWI_readByte+0xa>
	I2CTWI_delay();
    1660:	0e 94 be 09 	call	0x137c	; 0x137c <I2CTWI_delay>
	TWI_operation = I2CTWI_REQUEST_BYTES;
    1664:	82 e0       	ldi	r24, 0x02	; 2
    1666:	80 93 d4 01 	sts	0x01D4, r24
	I2CTWI_request_adr = targetAdr;
    166a:	c0 93 d9 01 	sts	0x01D9, r28
	I2CTWI_requestID = -1;
    166e:	8f ef       	ldi	r24, 0xFF	; 255
    1670:	9f ef       	ldi	r25, 0xFF	; 255
    1672:	90 93 d6 01 	sts	0x01D6, r25
    1676:	80 93 d5 01 	sts	0x01D5, r24
	I2CTWI_request_size = 1;
    167a:	81 e0       	ldi	r24, 0x01	; 1
    167c:	80 93 d7 01 	sts	0x01D7, r24
	while(TWI_operation != I2CTWI_NO_OPERATION) task_I2CTWI();
    1680:	80 91 d4 01 	lds	r24, 0x01D4
    1684:	88 23       	and	r24, r24
    1686:	19 f0       	breq	.+6      	; 0x168e <I2CTWI_readByte+0x46>
    1688:	0e 94 e8 09 	call	0x13d0	; 0x13d0 <task_I2CTWI>
    168c:	f9 cf       	rjmp	.-14     	; 0x1680 <I2CTWI_readByte+0x38>
	if (TWI_statusReg.lastTransOK)
    168e:	80 91 db 01 	lds	r24, 0x01DB
    1692:	80 ff       	sbrs	r24, 0
    1694:	03 c0       	rjmp	.+6      	; 0x169c <I2CTWI_readByte+0x54>
		return I2CTWI_recbuf[1];
    1696:	80 91 df 01 	lds	r24, 0x01DF
    169a:	01 c0       	rjmp	.+2      	; 0x169e <I2CTWI_readByte+0x56>
	else
		return 0;
    169c:	80 e0       	ldi	r24, 0x00	; 0
}
    169e:	cf 91       	pop	r28
    16a0:	08 95       	ret

000016a2 <I2CTWI_transmitByte>:
 * it does NOT wait until this transmission is finished! 
 * This allows you to perform other things while the transmission is 
 * in progress! 
 */
void I2CTWI_transmitByte(uint8_t targetAdr, uint8_t data)
{
    16a2:	cf 93       	push	r28
    16a4:	df 93       	push	r29
    16a6:	d8 2f       	mov	r29, r24
    16a8:	c6 2f       	mov	r28, r22
	while(I2CTWI_isBusy() || TWI_operation != I2CTWI_NO_OPERATION) task_I2CTWI();
    16aa:	06 b6       	in	r0, 0x36	; 54
    16ac:	00 fe       	sbrs	r0, 0
    16ae:	03 c0       	rjmp	.+6      	; 0x16b6 <I2CTWI_transmitByte+0x14>
    16b0:	0e 94 e8 09 	call	0x13d0	; 0x13d0 <task_I2CTWI>
    16b4:	fa cf       	rjmp	.-12     	; 0x16aa <I2CTWI_transmitByte+0x8>
    16b6:	80 91 d4 01 	lds	r24, 0x01D4
    16ba:	81 11       	cpse	r24, r1
    16bc:	f9 cf       	rjmp	.-14     	; 0x16b0 <I2CTWI_transmitByte+0xe>
	I2CTWI_delay();
    16be:	0e 94 be 09 	call	0x137c	; 0x137c <I2CTWI_delay>
	TWI_msgSize = 2;
    16c2:	82 e0       	ldi	r24, 0x02	; 2
    16c4:	80 93 dd 01 	sts	0x01DD, r24
	I2CTWI_buf[0] = targetAdr;
    16c8:	d0 93 0e 02 	sts	0x020E, r29
	I2CTWI_buf[1] = data;
    16cc:	c0 93 0f 02 	sts	0x020F, r28
	TWI_statusReg.all = 0;
    16d0:	10 92 db 01 	sts	0x01DB, r1
	TWCR = (1<<TWEN)|(1<<TWIE)|(1<<TWINT)|(0<<TWEA)|(1<<TWSTA)|(0<<TWSTO);
    16d4:	85 ea       	ldi	r24, 0xA5	; 165
    16d6:	86 bf       	out	0x36, r24	; 54
}
    16d8:	df 91       	pop	r29
    16da:	cf 91       	pop	r28
    16dc:	08 95       	ret

000016de <I2CTWI_transmit2Bytes>:
/**
 * This is just the same as transmitByte, but you can pass 2 Bytes to
 * this function which are then transferred. 
 */
void I2CTWI_transmit2Bytes(uint8_t targetAdr, uint8_t data1, uint8_t data2)
{
    16de:	1f 93       	push	r17
    16e0:	cf 93       	push	r28
    16e2:	df 93       	push	r29
    16e4:	18 2f       	mov	r17, r24
    16e6:	d6 2f       	mov	r29, r22
    16e8:	c4 2f       	mov	r28, r20
	while(I2CTWI_isBusy() || TWI_operation != I2CTWI_NO_OPERATION) task_I2CTWI();
    16ea:	06 b6       	in	r0, 0x36	; 54
    16ec:	00 fe       	sbrs	r0, 0
    16ee:	03 c0       	rjmp	.+6      	; 0x16f6 <I2CTWI_transmit2Bytes+0x18>
    16f0:	0e 94 e8 09 	call	0x13d0	; 0x13d0 <task_I2CTWI>
    16f4:	fa cf       	rjmp	.-12     	; 0x16ea <I2CTWI_transmit2Bytes+0xc>
    16f6:	80 91 d4 01 	lds	r24, 0x01D4
    16fa:	81 11       	cpse	r24, r1
    16fc:	f9 cf       	rjmp	.-14     	; 0x16f0 <I2CTWI_transmit2Bytes+0x12>
	I2CTWI_delay();
    16fe:	0e 94 be 09 	call	0x137c	; 0x137c <I2CTWI_delay>
	TWI_msgSize = 3;
    1702:	83 e0       	ldi	r24, 0x03	; 3
    1704:	80 93 dd 01 	sts	0x01DD, r24
	I2CTWI_buf[0] = targetAdr;
    1708:	10 93 0e 02 	sts	0x020E, r17
	I2CTWI_buf[1] = data1;
    170c:	d0 93 0f 02 	sts	0x020F, r29
	I2CTWI_buf[2] = data2;
    1710:	c0 93 10 02 	sts	0x0210, r28
	TWI_statusReg.all = 0;
    1714:	10 92 db 01 	sts	0x01DB, r1
	TWCR = (1<<TWEN)|(1<<TWIE)|(1<<TWINT)|(0<<TWEA)|(1<<TWSTA)|(0<<TWSTO);
    1718:	85 ea       	ldi	r24, 0xA5	; 165
    171a:	86 bf       	out	0x36, r24	; 54
}
    171c:	df 91       	pop	r29
    171e:	cf 91       	pop	r28
    1720:	1f 91       	pop	r17
    1722:	08 95       	ret

00001724 <I2CTWI_transmit3Bytes>:

/**
 * Transmits 3 Bytes to the slave.
 */
void I2CTWI_transmit3Bytes(uint8_t targetAdr, uint8_t data1, uint8_t data2, uint8_t data3)
{
    1724:	0f 93       	push	r16
    1726:	1f 93       	push	r17
    1728:	cf 93       	push	r28
    172a:	df 93       	push	r29
    172c:	08 2f       	mov	r16, r24
    172e:	16 2f       	mov	r17, r22
    1730:	d4 2f       	mov	r29, r20
    1732:	c2 2f       	mov	r28, r18
	while(I2CTWI_isBusy() || TWI_operation != I2CTWI_NO_OPERATION) task_I2CTWI();
    1734:	06 b6       	in	r0, 0x36	; 54
    1736:	00 fe       	sbrs	r0, 0
    1738:	03 c0       	rjmp	.+6      	; 0x1740 <I2CTWI_transmit3Bytes+0x1c>
    173a:	0e 94 e8 09 	call	0x13d0	; 0x13d0 <task_I2CTWI>
    173e:	fa cf       	rjmp	.-12     	; 0x1734 <I2CTWI_transmit3Bytes+0x10>
    1740:	80 91 d4 01 	lds	r24, 0x01D4
    1744:	81 11       	cpse	r24, r1
    1746:	f9 cf       	rjmp	.-14     	; 0x173a <I2CTWI_transmit3Bytes+0x16>
	I2CTWI_delay();
    1748:	0e 94 be 09 	call	0x137c	; 0x137c <I2CTWI_delay>
	TWI_msgSize = 4;
    174c:	84 e0       	ldi	r24, 0x04	; 4
    174e:	80 93 dd 01 	sts	0x01DD, r24
	I2CTWI_buf[0] = targetAdr;
    1752:	00 93 0e 02 	sts	0x020E, r16
	I2CTWI_buf[1] = data1;
    1756:	10 93 0f 02 	sts	0x020F, r17
	I2CTWI_buf[2] = data2;
    175a:	d0 93 10 02 	sts	0x0210, r29
	I2CTWI_buf[3] = data3;
    175e:	c0 93 11 02 	sts	0x0211, r28
	TWI_statusReg.all = 0;
    1762:	10 92 db 01 	sts	0x01DB, r1
	TWCR = (1<<TWEN)|(1<<TWIE)|(1<<TWINT)|(0<<TWEA)|(1<<TWSTA)|(0<<TWSTO);
    1766:	85 ea       	ldi	r24, 0xA5	; 165
    1768:	86 bf       	out	0x36, r24	; 54
}
    176a:	df 91       	pop	r29
    176c:	cf 91       	pop	r28
    176e:	1f 91       	pop	r17
    1770:	0f 91       	pop	r16
    1772:	08 95       	ret

00001774 <I2CTWI_transmit4Bytes>:

/**
 * Transmits 4 Bytes to the slave.
 */
void I2CTWI_transmit4Bytes(uint8_t targetAdr, uint8_t data1, uint8_t data2, uint8_t data3, uint8_t data4)
{
    1774:	ff 92       	push	r15
    1776:	0f 93       	push	r16
    1778:	1f 93       	push	r17
    177a:	cf 93       	push	r28
    177c:	df 93       	push	r29
    177e:	f8 2e       	mov	r15, r24
    1780:	16 2f       	mov	r17, r22
    1782:	d4 2f       	mov	r29, r20
    1784:	c2 2f       	mov	r28, r18
	while(I2CTWI_isBusy() || TWI_operation != I2CTWI_NO_OPERATION) task_I2CTWI();
    1786:	06 b6       	in	r0, 0x36	; 54
    1788:	00 fe       	sbrs	r0, 0
    178a:	03 c0       	rjmp	.+6      	; 0x1792 <I2CTWI_transmit4Bytes+0x1e>
    178c:	0e 94 e8 09 	call	0x13d0	; 0x13d0 <task_I2CTWI>
    1790:	fa cf       	rjmp	.-12     	; 0x1786 <I2CTWI_transmit4Bytes+0x12>
    1792:	80 91 d4 01 	lds	r24, 0x01D4
    1796:	81 11       	cpse	r24, r1
    1798:	f9 cf       	rjmp	.-14     	; 0x178c <I2CTWI_transmit4Bytes+0x18>
	I2CTWI_delay();
    179a:	0e 94 be 09 	call	0x137c	; 0x137c <I2CTWI_delay>
	TWI_msgSize = 5;
    179e:	85 e0       	ldi	r24, 0x05	; 5
    17a0:	80 93 dd 01 	sts	0x01DD, r24
	I2CTWI_buf[0] = targetAdr;
    17a4:	f0 92 0e 02 	sts	0x020E, r15
	I2CTWI_buf[1] = data1;
    17a8:	10 93 0f 02 	sts	0x020F, r17
	I2CTWI_buf[2] = data2;
    17ac:	d0 93 10 02 	sts	0x0210, r29
	I2CTWI_buf[3] = data3;
    17b0:	c0 93 11 02 	sts	0x0211, r28
	I2CTWI_buf[4] = data4;
    17b4:	00 93 12 02 	sts	0x0212, r16
	TWI_statusReg.all = 0;
    17b8:	10 92 db 01 	sts	0x01DB, r1
	TWCR = (1<<TWEN)|(1<<TWIE)|(1<<TWINT)|(0<<TWEA)|(1<<TWSTA)|(0<<TWSTO);
    17bc:	85 ea       	ldi	r24, 0xA5	; 165
    17be:	86 bf       	out	0x36, r24	; 54
}
    17c0:	df 91       	pop	r29
    17c2:	cf 91       	pop	r28
    17c4:	1f 91       	pop	r17
    17c6:	0f 91       	pop	r16
    17c8:	ff 90       	pop	r15
    17ca:	08 95       	ret

000017cc <I2CTWI_transmitBytes>:
/**
 * Transmits "numberOfBytes" Bytes to the Slave device. The Bytes need to be
 * in the Buffer "msg". Otherwise it is just the same as the other transmit functions.
 */
void I2CTWI_transmitBytes(uint8_t targetAdr, uint8_t *msg, uint8_t numberOfBytes)
{
    17cc:	0f 93       	push	r16
    17ce:	1f 93       	push	r17
    17d0:	cf 93       	push	r28
    17d2:	df 93       	push	r29
    17d4:	18 2f       	mov	r17, r24
    17d6:	d6 2f       	mov	r29, r22
    17d8:	c7 2f       	mov	r28, r23
    17da:	04 2f       	mov	r16, r20
	while(I2CTWI_isBusy() || TWI_operation != I2CTWI_NO_OPERATION) task_I2CTWI();
    17dc:	06 b6       	in	r0, 0x36	; 54
    17de:	00 fe       	sbrs	r0, 0
    17e0:	03 c0       	rjmp	.+6      	; 0x17e8 <I2CTWI_transmitBytes+0x1c>
    17e2:	0e 94 e8 09 	call	0x13d0	; 0x13d0 <task_I2CTWI>
    17e6:	fa cf       	rjmp	.-12     	; 0x17dc <I2CTWI_transmitBytes+0x10>
    17e8:	80 91 d4 01 	lds	r24, 0x01D4
    17ec:	81 11       	cpse	r24, r1
    17ee:	f9 cf       	rjmp	.-14     	; 0x17e2 <I2CTWI_transmitBytes+0x16>
	I2CTWI_delay();
    17f0:	0e 94 be 09 	call	0x137c	; 0x137c <I2CTWI_delay>
	numberOfBytes++; 
    17f4:	41 e0       	ldi	r20, 0x01	; 1
    17f6:	40 0f       	add	r20, r16
	TWI_msgSize = numberOfBytes;
    17f8:	40 93 dd 01 	sts	0x01DD, r20
	I2CTWI_buf[0]  = targetAdr;
    17fc:	10 93 0e 02 	sts	0x020E, r17
    1800:	ed 2f       	mov	r30, r29
    1802:	fc 2f       	mov	r31, r28
    1804:	8f e0       	ldi	r24, 0x0F	; 15
    1806:	92 e0       	ldi	r25, 0x02	; 2
	uint8_t i = 0;
	for(; i < numberOfBytes; i++)
    1808:	dc 01       	movw	r26, r24
    180a:	2a 2f       	mov	r18, r26
    180c:	28 1b       	sub	r18, r24
    180e:	24 17       	cp	r18, r20
    1810:	18 f4       	brcc	.+6      	; 0x1818 <I2CTWI_transmitBytes+0x4c>
		I2CTWI_buf[i+1] = msg[i];
    1812:	21 91       	ld	r18, Z+
    1814:	2d 93       	st	X+, r18
    1816:	f9 cf       	rjmp	.-14     	; 0x180a <I2CTWI_transmitBytes+0x3e>
	TWI_statusReg.all = 0;
    1818:	10 92 db 01 	sts	0x01DB, r1
	TWCR = (1<<TWEN)|(1<<TWIE)|(1<<TWINT)|(0<<TWEA)|(1<<TWSTA)|(0<<TWSTO);
    181c:	85 ea       	ldi	r24, 0xA5	; 165
    181e:	86 bf       	out	0x36, r24	; 54
}
    1820:	df 91       	pop	r29
    1822:	cf 91       	pop	r28
    1824:	1f 91       	pop	r17
    1826:	0f 91       	pop	r16
    1828:	08 95       	ret

0000182a <__vector_19>:

/*
 * TWI ISR
 */
ISR (TWI_vect)
{
    182a:	1f 92       	push	r1
    182c:	0f 92       	push	r0
    182e:	0f b6       	in	r0, 0x3f	; 63
    1830:	0f 92       	push	r0
    1832:	11 24       	eor	r1, r1
    1834:	2f 93       	push	r18
    1836:	3f 93       	push	r19
    1838:	8f 93       	push	r24
    183a:	9f 93       	push	r25
    183c:	ef 93       	push	r30
    183e:	ff 93       	push	r31
	static uint8_t TWI_bufPos = 0;
	switch (TWSR)
    1840:	81 b1       	in	r24, 0x01	; 1
    1842:	88 32       	cpi	r24, 0x28	; 40
    1844:	11 f1       	breq	.+68     	; 0x188a <__vector_19+0x60>
    1846:	40 f4       	brcc	.+16     	; 0x1858 <__vector_19+0x2e>
    1848:	80 31       	cpi	r24, 0x10	; 16
    184a:	e9 f0       	breq	.+58     	; 0x1886 <__vector_19+0x5c>
    184c:	88 31       	cpi	r24, 0x18	; 24
    184e:	e9 f0       	breq	.+58     	; 0x188a <__vector_19+0x60>
    1850:	88 30       	cpi	r24, 0x08	; 8
    1852:	09 f0       	breq	.+2      	; 0x1856 <__vector_19+0x2c>
    1854:	49 c0       	rjmp	.+146    	; 0x18e8 <__vector_19+0xbe>
    1856:	17 c0       	rjmp	.+46     	; 0x1886 <__vector_19+0x5c>
    1858:	80 34       	cpi	r24, 0x40	; 64
    185a:	91 f1       	breq	.+100    	; 0x18c0 <__vector_19+0x96>
    185c:	40 f4       	brcc	.+16     	; 0x186e <__vector_19+0x44>
    185e:	88 33       	cpi	r24, 0x38	; 56
    1860:	09 f0       	breq	.+2      	; 0x1864 <__vector_19+0x3a>
    1862:	42 c0       	rjmp	.+132    	; 0x18e8 <__vector_19+0xbe>
				 (0<<TWIE)|(1<<TWINT)|                      // Disable TWI Interrupt and clear the flag
				 (0<<TWEA)|(0<<TWSTA)|(1<<TWSTO)|           // Initiate a STOP condition.
				 (0<<TWWC);                                 //
		  break;      
		case TWI_ARB_LOST:          // Arbitration lost
		  TWI_TWSR_state = TWSR;  							// Store TWSR 	
    1864:	81 b1       	in	r24, 0x01	; 1
    1866:	80 93 da 01 	sts	0x01DA, r24
		  TWCR = (1<<TWEN)|                                 // TWI Interface enabled
    186a:	85 ea       	ldi	r24, 0xA5	; 165
    186c:	41 c0       	rjmp	.+130    	; 0x18f0 <__vector_19+0xc6>
 * TWI ISR
 */
ISR (TWI_vect)
{
	static uint8_t TWI_bufPos = 0;
	switch (TWSR)
    186e:	80 35       	cpi	r24, 0x50	; 80
    1870:	e1 f0       	breq	.+56     	; 0x18aa <__vector_19+0x80>
    1872:	88 35       	cpi	r24, 0x58	; 88
    1874:	c9 f5       	brne	.+114    	; 0x18e8 <__vector_19+0xbe>
				   (0<<TWEA)|(0<<TWSTA)|(0<<TWSTO)|           // Send NACK after reception
				   (0<<TWWC);                                 // 
		  }    
		  break; 
		case TWI_MRX_DATA_NACK:     // Data byte has been received and NACK transmitted
		  I2CTWI_recbuf[TWI_bufPos] = TWDR;
    1876:	83 b1       	in	r24, 0x03	; 3
    1878:	e0 91 dc 01 	lds	r30, 0x01DC
    187c:	f0 e0       	ldi	r31, 0x00	; 0
    187e:	e2 52       	subi	r30, 0x22	; 34
    1880:	fe 4f       	sbci	r31, 0xFE	; 254
    1882:	80 83       	st	Z, r24
    1884:	2b c0       	rjmp	.+86     	; 0x18dc <__vector_19+0xb2>
	static uint8_t TWI_bufPos = 0;
	switch (TWSR)
	{
		case TWI_START:             // START has been transmitted  
		case TWI_REP_START:         // Repeated START has been transmitted
		  TWI_bufPos = 0;           // Set buffer pointer to the TWI Address location
    1886:	10 92 dc 01 	sts	0x01DC, r1
		case TWI_MTX_ADR_ACK:       // SLA+W has been transmitted and ACK received
		case TWI_MTX_DATA_ACK:      // Data byte has been transmitted and ACK received
		  if (TWI_bufPos < TWI_msgSize) {
    188a:	e0 91 dc 01 	lds	r30, 0x01DC
    188e:	80 91 dd 01 	lds	r24, 0x01DD
    1892:	e8 17       	cp	r30, r24
    1894:	18 f5       	brcc	.+70     	; 0x18dc <__vector_19+0xb2>
			TWDR = I2CTWI_buf[TWI_bufPos++];
    1896:	81 e0       	ldi	r24, 0x01	; 1
    1898:	8e 0f       	add	r24, r30
    189a:	80 93 dc 01 	sts	0x01DC, r24
    189e:	f0 e0       	ldi	r31, 0x00	; 0
    18a0:	e2 5f       	subi	r30, 0xF2	; 242
    18a2:	fd 4f       	sbci	r31, 0xFD	; 253
    18a4:	80 81       	ld	r24, Z
    18a6:	83 b9       	out	0x03, r24	; 3
    18a8:	17 c0       	rjmp	.+46     	; 0x18d8 <__vector_19+0xae>
				   (0<<TWEA)|(0<<TWSTA)|(1<<TWSTO)|           // Initiate a STOP condition.
				   (0<<TWWC);                                 //
		  }
		  break;
		case TWI_MRX_DATA_ACK:      // Data byte has been received and ACK transmitted
		  I2CTWI_recbuf[TWI_bufPos++] = TWDR;
    18aa:	e0 91 dc 01 	lds	r30, 0x01DC
    18ae:	81 e0       	ldi	r24, 0x01	; 1
    18b0:	8e 0f       	add	r24, r30
    18b2:	80 93 dc 01 	sts	0x01DC, r24
    18b6:	83 b1       	in	r24, 0x03	; 3
    18b8:	f0 e0       	ldi	r31, 0x00	; 0
    18ba:	e2 52       	subi	r30, 0x22	; 34
    18bc:	fe 4f       	sbci	r31, 0xFE	; 254
    18be:	80 83       	st	Z, r24
		case TWI_MRX_ADR_ACK:       // SLA+R has been transmitted and ACK received
		  if (TWI_bufPos < (TWI_msgSize-1) ) {                 // Detect the last byte to NACK it.
    18c0:	20 91 dc 01 	lds	r18, 0x01DC
    18c4:	30 e0       	ldi	r19, 0x00	; 0
    18c6:	80 91 dd 01 	lds	r24, 0x01DD
    18ca:	90 e0       	ldi	r25, 0x00	; 0
    18cc:	01 97       	sbiw	r24, 0x01	; 1
    18ce:	28 17       	cp	r18, r24
    18d0:	39 07       	cpc	r19, r25
    18d2:	14 f4       	brge	.+4      	; 0x18d8 <__vector_19+0xae>
			TWCR = (1<<TWEN)|                                 // TWI Interface enabled
    18d4:	85 ec       	ldi	r24, 0xC5	; 197
    18d6:	0c c0       	rjmp	.+24     	; 0x18f0 <__vector_19+0xc6>
				   (1<<TWIE)|(1<<TWINT)|                      // Enable TWI Interupt and clear the flag to read next byte
				   (1<<TWEA)|(0<<TWSTA)|(0<<TWSTO)|           // Send ACK after reception
				   (0<<TWWC);                                 //  
		  } else {                   // Send NACK after next reception
			TWCR = (1<<TWEN)|                                 // TWI Interface enabled
    18d8:	85 e8       	ldi	r24, 0x85	; 133
    18da:	0a c0       	rjmp	.+20     	; 0x18f0 <__vector_19+0xc6>
				   (0<<TWWC);                                 // 
		  }    
		  break; 
		case TWI_MRX_DATA_NACK:     // Data byte has been received and NACK transmitted
		  I2CTWI_recbuf[TWI_bufPos] = TWDR;
		  TWI_statusReg.lastTransOK = 1;                 	// Set status bits to completed successfully. 		 
    18dc:	80 91 db 01 	lds	r24, 0x01DB
    18e0:	81 60       	ori	r24, 0x01	; 1
    18e2:	80 93 db 01 	sts	0x01DB, r24
    18e6:	03 c0       	rjmp	.+6      	; 0x18ee <__vector_19+0xc4>
				 (1<<TWIE)|(1<<TWINT)|                      // Enable TWI Interupt and clear the flag
				 (0<<TWEA)|(1<<TWSTA)|(0<<TWSTO)|           // Initiate a (RE)START condition.
				 (0<<TWWC);                                 //
		  break;
		default:     
		  TWI_TWSR_state = TWSR;                     		// Store TWSR 					
    18e8:	81 b1       	in	r24, 0x01	; 1
    18ea:	80 93 da 01 	sts	0x01DA, r24
		  TWCR = (1<<TWEN)|                                 // Enable TWI-interface and release TWI pins
    18ee:	84 e9       	ldi	r24, 0x94	; 148
    18f0:	86 bf       	out	0x36, r24	; 54
				 (0<<TWIE)|(1<<TWINT)|                      // Disable Interupt
				 (0<<TWEA)|(0<<TWSTA)|(1<<TWSTO)|           // No Signal requests
				 (0<<TWWC); 
		break;
	}
}
    18f2:	ff 91       	pop	r31
    18f4:	ef 91       	pop	r30
    18f6:	9f 91       	pop	r25
    18f8:	8f 91       	pop	r24
    18fa:	3f 91       	pop	r19
    18fc:	2f 91       	pop	r18
    18fe:	0f 90       	pop	r0
    1900:	0f be       	out	0x3f, r0	; 63
    1902:	0f 90       	pop	r0
    1904:	1f 90       	pop	r1
    1906:	18 95       	reti

00001908 <BUMPERS_stateChanged_DUMMY>:
}

// -------------------------------
// Bumpers State changed handler:

void BUMPERS_stateChanged_DUMMY(void){}
    1908:	08 95       	ret

0000190a <MOTIONCONTROL_stateChanged_DUMMY>:
// MotionControl:

// -------------------------------
// MotionControl state changed handler:

void MOTIONCONTROL_stateChanged_DUMMY(void){}
    190a:	08 95       	ret

0000190c <IRCOMM_RC5dataReady_DUMMY>:
// RC5:

// -------------------------------
// RC5 Data reception Handler:

void IRCOMM_RC5dataReady_DUMMY(RC5data_t rc5data){}
    190c:	08 95       	ret

0000190e <ACS_stateChanged_DUMMY>:
uint8_t obstacle_right;

// -------------------------------
// ACS State changed handler:

void ACS_stateChanged_DUMMY(void){}
    190e:	08 95       	ret

00001910 <BATTERY_lowVoltage_DUMMY>:
// Battery Voltage Sensor:

// -------------------------------
// Low Battery Voltage Event Handler:

void BATTERY_lowVoltage_DUMMY(uint8_t isVoltageLow){}
    1910:	08 95       	ret

00001912 <WDT_request_DUMMY>:
// WDT:

// -------------------------------
// WDT Request Event Handler:

void WDT_request_DUMMY(void){}
    1912:	08 95       	ret

00001914 <I2C_request_DUMMY>:
// I2C:

// -------------------------------
// I2C Request Event Handler:

void I2C_request_DUMMY(uint8_t errorState) {}
    1914:	08 95       	ret

00001916 <initI2C_RP6Lib>:
	checkRP6Status(dataRequestID);
	//TODO: bes: if lost call other registered I2C handler
}

void initI2C_RP6Lib(void) {
	I2CTWI_initMaster(RP6_MASTERLIB_I2C_ADDRESS);  
    1916:	88 e4       	ldi	r24, 0x48	; 72
    1918:	0e 94 a6 09 	call	0x134c	; 0x134c <__I2CTWI_initMaster>
	I2CTWI_setRequestedDataReadyHandler(I2C_requestedDataReady);
    191c:	81 e1       	ldi	r24, 0x11	; 17
    191e:	9e e0       	ldi	r25, 0x0E	; 14
    1920:	0c 94 b4 09 	jmp	0x1368	; 0x1368 <I2CTWI_setRequestedDataReadyHandler>

00001924 <BUMPERS_setStateChangedHandler>:
 * Use this function to set the Bumpers state change handler. 
 * 
 */
void BUMPERS_setStateChangedHandler(void (*bumperHandler)(void)) 
{
	BUMPERS_stateChangedHandler = bumperHandler;
    1924:	90 93 79 00 	sts	0x0079, r25
    1928:	80 93 78 00 	sts	0x0078, r24
    192c:	08 95       	ret

0000192e <MOTIONCONTROL_setStateChangedHandler>:
void MOTIONCONTROL_stateChanged_DUMMY(void){}
static void (*MOTIONCONTROL_stateChangedHandler)(void) = MOTIONCONTROL_stateChanged_DUMMY;

void MOTIONCONTROL_setStateChangedHandler(void (*motionControlHandler)(void)) 
{
	MOTIONCONTROL_stateChangedHandler = motionControlHandler;
    192e:	90 93 77 00 	sts	0x0077, r25
    1932:	80 93 76 00 	sts	0x0076, r24
    1936:	08 95       	ret

00001938 <IRCOMM_setRC5DataReadyHandler>:
void IRCOMM_RC5dataReady_DUMMY(RC5data_t rc5data){}
static void (*IRCOMM_RC5dataReadyHandler)(RC5data_t rc5data) = IRCOMM_RC5dataReady_DUMMY;

void IRCOMM_setRC5DataReadyHandler(void (*rc5Handler)(RC5data_t rc5data)) 
{
	IRCOMM_RC5dataReadyHandler = rc5Handler;
    1938:	90 93 75 00 	sts	0x0075, r25
    193c:	80 93 74 00 	sts	0x0074, r24
    1940:	08 95       	ret

00001942 <ACS_setStateChangedHandler>:
void ACS_stateChanged_DUMMY(void){}
static void (*ACS_stateChangedHandler)(void) = ACS_stateChanged_DUMMY;

void ACS_setStateChangedHandler(void (*acsHandler)(void)) 
{
	ACS_stateChangedHandler = acsHandler;
    1942:	90 93 73 00 	sts	0x0073, r25
    1946:	80 93 72 00 	sts	0x0072, r24
    194a:	08 95       	ret

0000194c <BATTERY_setLowVoltageHandler>:
void BATTERY_lowVoltage_DUMMY(uint8_t isVoltageLow){}
static void (*BATTERY_lowVoltageHandler)(uint8_t) = BATTERY_lowVoltage_DUMMY;

void BATTERY_setLowVoltageHandler(void (*lowVoltageHandler)(uint8_t)) 
{
	BATTERY_lowVoltageHandler = lowVoltageHandler;
    194c:	90 93 71 00 	sts	0x0071, r25
    1950:	80 93 70 00 	sts	0x0070, r24
    1954:	08 95       	ret

00001956 <WDT_setRequestHandler>:
void WDT_request_DUMMY(void){}
static void (*WDT_requestHandler)(void) = WDT_request_DUMMY;

void WDT_setRequestHandler(void (*requestHandler)(void)) 
{
	WDT_requestHandler = requestHandler;
    1956:	90 93 6f 00 	sts	0x006F, r25
    195a:	80 93 6e 00 	sts	0x006E, r24
    195e:	08 95       	ret

00001960 <I2C_setTransmissionErrorHandler>:
void I2C_request_DUMMY(uint8_t errorState) {}
static void (*I2C_requestHandler)(uint8_t) = I2C_request_DUMMY;

void I2C_setTransmissionErrorHandler(void (*transmissionErrorHandler)(uint8_t)) 
{
   I2C_requestHandler = transmissionErrorHandler;
    1960:	90 93 6d 00 	sts	0x006D, r25
    1964:	80 93 6c 00 	sts	0x006C, r24
    1968:	08 95       	ret

0000196a <getAllSensors>:
 * Of course this function needs some time to read all these
 * 24 registers via the I2C Bus. 
 */
void getAllSensors(void)
{
	I2CTWI_readRegisters(I2C_RP6_BASE_ADR, I2C_REG_POWER_LEFT, sensorBuf, 24);
    196a:	28 e1       	ldi	r18, 0x18	; 24
    196c:	42 ef       	ldi	r20, 0xF2	; 242
    196e:	52 e0       	ldi	r21, 0x02	; 2
    1970:	63 e0       	ldi	r22, 0x03	; 3
    1972:	8a e0       	ldi	r24, 0x0A	; 10
    1974:	0e 94 9f 0a 	call	0x153e	; 0x153e <I2CTWI_readRegisters>
	mleft_power = sensorBuf[0];
    1978:	80 91 f2 02 	lds	r24, 0x02F2
    197c:	80 93 16 03 	sts	0x0316, r24
	mright_power = sensorBuf[1];
    1980:	80 91 f3 02 	lds	r24, 0x02F3
    1984:	80 93 1c 03 	sts	0x031C, r24
	mleft_speed = sensorBuf[2];
    1988:	80 91 f4 02 	lds	r24, 0x02F4
    198c:	80 93 17 03 	sts	0x0317, r24
	mright_speed = sensorBuf[3];
    1990:	80 91 f5 02 	lds	r24, 0x02F5
    1994:	80 93 29 03 	sts	0x0329, r24
	mleft_des_speed = sensorBuf[4];
    1998:	80 91 f6 02 	lds	r24, 0x02F6
    199c:	80 93 0b 03 	sts	0x030B, r24
	mright_des_speed = sensorBuf[5];
    19a0:	80 91 f7 02 	lds	r24, 0x02F7
    19a4:	80 93 0a 03 	sts	0x030A, r24
	mleft_dist = sensorBuf[6] + (sensorBuf[7]<<8);
    19a8:	20 91 f8 02 	lds	r18, 0x02F8
    19ac:	80 91 f9 02 	lds	r24, 0x02F9
    19b0:	90 e0       	ldi	r25, 0x00	; 0
    19b2:	98 2f       	mov	r25, r24
    19b4:	88 27       	eor	r24, r24
    19b6:	82 0f       	add	r24, r18
    19b8:	91 1d       	adc	r25, r1
    19ba:	90 93 28 03 	sts	0x0328, r25
    19be:	80 93 27 03 	sts	0x0327, r24
	mright_dist = sensorBuf[8] + (sensorBuf[9]<<8);
    19c2:	20 91 fa 02 	lds	r18, 0x02FA
    19c6:	80 91 fb 02 	lds	r24, 0x02FB
    19ca:	90 e0       	ldi	r25, 0x00	; 0
    19cc:	98 2f       	mov	r25, r24
    19ce:	88 27       	eor	r24, r24
    19d0:	82 0f       	add	r24, r18
    19d2:	91 1d       	adc	r25, r1
    19d4:	90 93 22 03 	sts	0x0322, r25
    19d8:	80 93 21 03 	sts	0x0321, r24
	adcLSL = sensorBuf[10] + (sensorBuf[11]<<8);
    19dc:	20 91 fc 02 	lds	r18, 0x02FC
    19e0:	80 91 fd 02 	lds	r24, 0x02FD
    19e4:	90 e0       	ldi	r25, 0x00	; 0
    19e6:	98 2f       	mov	r25, r24
    19e8:	88 27       	eor	r24, r24
    19ea:	82 0f       	add	r24, r18
    19ec:	91 1d       	adc	r25, r1
    19ee:	90 93 1b 03 	sts	0x031B, r25
    19f2:	80 93 1a 03 	sts	0x031A, r24
	adcLSR = sensorBuf[12] + (sensorBuf[13]<<8);
    19f6:	20 91 fe 02 	lds	r18, 0x02FE
    19fa:	80 91 ff 02 	lds	r24, 0x02FF
    19fe:	90 e0       	ldi	r25, 0x00	; 0
    1a00:	98 2f       	mov	r25, r24
    1a02:	88 27       	eor	r24, r24
    1a04:	82 0f       	add	r24, r18
    1a06:	91 1d       	adc	r25, r1
    1a08:	90 93 1f 03 	sts	0x031F, r25
    1a0c:	80 93 1e 03 	sts	0x031E, r24
	adcMotorCurrentLeft = sensorBuf[14] + (sensorBuf[15]<<8);
    1a10:	20 91 00 03 	lds	r18, 0x0300
    1a14:	80 91 01 03 	lds	r24, 0x0301
    1a18:	90 e0       	ldi	r25, 0x00	; 0
    1a1a:	98 2f       	mov	r25, r24
    1a1c:	88 27       	eor	r24, r24
    1a1e:	82 0f       	add	r24, r18
    1a20:	91 1d       	adc	r25, r1
    1a22:	90 93 2e 03 	sts	0x032E, r25
    1a26:	80 93 2d 03 	sts	0x032D, r24
	adcMotorCurrentRight = sensorBuf[16] + (sensorBuf[17]<<8);
    1a2a:	20 91 02 03 	lds	r18, 0x0302
    1a2e:	80 91 03 03 	lds	r24, 0x0303
    1a32:	90 e0       	ldi	r25, 0x00	; 0
    1a34:	98 2f       	mov	r25, r24
    1a36:	88 27       	eor	r24, r24
    1a38:	82 0f       	add	r24, r18
    1a3a:	91 1d       	adc	r25, r1
    1a3c:	90 93 26 03 	sts	0x0326, r25
    1a40:	80 93 25 03 	sts	0x0325, r24
	adcBat = sensorBuf[18] + (sensorBuf[19]<<8);
    1a44:	20 91 04 03 	lds	r18, 0x0304
    1a48:	80 91 05 03 	lds	r24, 0x0305
    1a4c:	90 e0       	ldi	r25, 0x00	; 0
    1a4e:	98 2f       	mov	r25, r24
    1a50:	88 27       	eor	r24, r24
    1a52:	82 0f       	add	r24, r18
    1a54:	91 1d       	adc	r25, r1
    1a56:	90 93 2c 03 	sts	0x032C, r25
    1a5a:	80 93 2b 03 	sts	0x032B, r24
	adc0 = sensorBuf[20] + (sensorBuf[21]<<8);
    1a5e:	20 91 06 03 	lds	r18, 0x0306
    1a62:	80 91 07 03 	lds	r24, 0x0307
    1a66:	90 e0       	ldi	r25, 0x00	; 0
    1a68:	98 2f       	mov	r25, r24
    1a6a:	88 27       	eor	r24, r24
    1a6c:	82 0f       	add	r24, r18
    1a6e:	91 1d       	adc	r25, r1
    1a70:	90 93 24 03 	sts	0x0324, r25
    1a74:	80 93 23 03 	sts	0x0323, r24
	adc1 = sensorBuf[22] + (sensorBuf[23]<<8);
    1a78:	20 91 08 03 	lds	r18, 0x0308
    1a7c:	80 91 09 03 	lds	r24, 0x0309
    1a80:	90 e0       	ldi	r25, 0x00	; 0
    1a82:	98 2f       	mov	r25, r24
    1a84:	88 27       	eor	r24, r24
    1a86:	82 0f       	add	r24, r18
    1a88:	91 1d       	adc	r25, r1
    1a8a:	90 93 19 03 	sts	0x0319, r25
    1a8e:	80 93 18 03 	sts	0x0318, r24
    1a92:	08 95       	ret

00001a94 <getLightSensors>:
/**
 *
 */
void getLightSensors(void)
{
	I2CTWI_readRegisters(I2C_RP6_BASE_ADR, I2C_REG_ADC_LSL_L, sensorBuf, 4);
    1a94:	24 e0       	ldi	r18, 0x04	; 4
    1a96:	42 ef       	ldi	r20, 0xF2	; 242
    1a98:	52 e0       	ldi	r21, 0x02	; 2
    1a9a:	6d e0       	ldi	r22, 0x0D	; 13
    1a9c:	8a e0       	ldi	r24, 0x0A	; 10
    1a9e:	0e 94 9f 0a 	call	0x153e	; 0x153e <I2CTWI_readRegisters>
	adcLSL = sensorBuf[0] + (sensorBuf[1]<<8);
    1aa2:	20 91 f2 02 	lds	r18, 0x02F2
    1aa6:	80 91 f3 02 	lds	r24, 0x02F3
    1aaa:	90 e0       	ldi	r25, 0x00	; 0
    1aac:	98 2f       	mov	r25, r24
    1aae:	88 27       	eor	r24, r24
    1ab0:	82 0f       	add	r24, r18
    1ab2:	91 1d       	adc	r25, r1
    1ab4:	90 93 1b 03 	sts	0x031B, r25
    1ab8:	80 93 1a 03 	sts	0x031A, r24
	adcLSR = sensorBuf[2] + (sensorBuf[3]<<8);
    1abc:	20 91 f4 02 	lds	r18, 0x02F4
    1ac0:	80 91 f5 02 	lds	r24, 0x02F5
    1ac4:	90 e0       	ldi	r25, 0x00	; 0
    1ac6:	98 2f       	mov	r25, r24
    1ac8:	88 27       	eor	r24, r24
    1aca:	82 0f       	add	r24, r18
    1acc:	91 1d       	adc	r25, r1
    1ace:	90 93 1f 03 	sts	0x031F, r25
    1ad2:	80 93 1e 03 	sts	0x031E, r24
    1ad6:	08 95       	ret

00001ad8 <task_checkINT0>:
 * They are checked in the requested data ready handler which should call
 * the function checkRP6Status below. 
 */
void task_checkINT0(void)
{
	if(!block && (PIND & EINT1)) 
    1ad8:	80 91 1e 02 	lds	r24, 0x021E
    1adc:	81 11       	cpse	r24, r1
    1ade:	0b c0       	rjmp	.+22     	; 0x1af6 <task_checkINT0+0x1e>
    1ae0:	82 9b       	sbis	0x10, 2	; 16
    1ae2:	09 c0       	rjmp	.+18     	; 0x1af6 <task_checkINT0+0x1e>
	{
		block = true; // Block further requests and wait until 
    1ae4:	81 e0       	ldi	r24, 0x01	; 1
    1ae6:	80 93 1e 02 	sts	0x021E, r24
					  // this request has been processed.
		I2CTWI_requestRegisterFromDevice(I2C_RP6_BASE_ADR, INT0_STATUS_CHECK, 0, 3);
    1aea:	23 e0       	ldi	r18, 0x03	; 3
    1aec:	40 e0       	ldi	r20, 0x00	; 0
    1aee:	60 e0       	ldi	r22, 0x00	; 0
    1af0:	8a e0       	ldi	r24, 0x0A	; 10
    1af2:	0c 94 72 0a 	jmp	0x14e4	; 0x14e4 <I2CTWI_requestRegisterFromDevice>
    1af6:	08 95       	ret

00001af8 <checkRP6Status>:
 * It returns true if it was a INT0 request and false otherwise.
 * This way you can check if it was a request that you initiated or a 
 * request initiated in the library...
 */
uint8_t checkRP6Status(uint8_t dataRequestID)
{
    1af8:	1f 93       	push	r17
    1afa:	cf 93       	push	r28
    1afc:	df 93       	push	r29
    1afe:	00 d0       	rcall	.+0      	; 0x1b00 <checkRP6Status+0x8>
    1b00:	cd b7       	in	r28, 0x3d	; 61
    1b02:	de b7       	in	r29, 0x3e	; 62
	if(dataRequestID == INT0_STATUS_CHECK) 
    1b04:	81 11       	cpse	r24, r1
    1b06:	86 c0       	rjmp	.+268    	; 0x1c14 <checkRP6Status+0x11c>
	{            
                         
		// get received data: 
		I2CTWI_getReceivedData(messageBuf, 3);
    1b08:	63 e0       	ldi	r22, 0x03	; 3
    1b0a:	8f e2       	ldi	r24, 0x2F	; 47
    1b0c:	93 e0       	ldi	r25, 0x03	; 3
    1b0e:	0e 94 cf 09 	call	0x139e	; 0x139e <I2CTWI_getReceivedData>
		
		// We want to check if the ACS status bits have changed, so we XOR 
		// ('^' is eXclusive OR operator) them with old 
		// value for comparison and later mask them in the if conditions below...
		uint8_t compare = messageBuf[0] ^ interrupt_status.byte;
    1b12:	80 91 2f 03 	lds	r24, 0x032F
    1b16:	10 91 1f 02 	lds	r17, 0x021F
    1b1a:	18 27       	eor	r17, r24
		interrupt_status.byte = messageBuf[0]; // Update local register
    1b1c:	80 93 1f 02 	sts	0x021F, r24

		// ------------------------------------
		// First, we check if the ACS status bits have changed, if not
		// we can just ignore the change as it was something else
		// and we only check the ACS bits in this example...
		if(compare & MASK_ACS) 
    1b20:	91 2f       	mov	r25, r17
    1b22:	90 76       	andi	r25, 0x60	; 96
    1b24:	79 f0       	breq	.+30     	; 0x1b44 <checkRP6Status+0x4c>
		{
			obstacle_left = interrupt_status.obstacleLeft;
    1b26:	85 fb       	bst	r24, 5
    1b28:	99 27       	eor	r25, r25
    1b2a:	90 f9       	bld	r25, 0
    1b2c:	90 93 1d 03 	sts	0x031D, r25
			obstacle_right = interrupt_status.obstacleRight;
    1b30:	86 fb       	bst	r24, 6
    1b32:	88 27       	eor	r24, r24
    1b34:	80 f9       	bld	r24, 0
    1b36:	80 93 20 03 	sts	0x0320, r24
			ACS_stateChangedHandler();
    1b3a:	e0 91 72 00 	lds	r30, 0x0072
    1b3e:	f0 91 73 00 	lds	r31, 0x0073
    1b42:	09 95       	icall
		}
		
		// ------------------------------------
		// Check if Bumpers status has changed:
		if(compare & MASK_BUMPER) 
    1b44:	81 2f       	mov	r24, r17
    1b46:	86 70       	andi	r24, 0x06	; 6
    1b48:	89 f0       	breq	.+34     	; 0x1b6c <checkRP6Status+0x74>
		{
			bumper_left = interrupt_status.bumperLeft;
    1b4a:	80 91 1f 02 	lds	r24, 0x021F
    1b4e:	81 fb       	bst	r24, 1
    1b50:	99 27       	eor	r25, r25
    1b52:	90 f9       	bld	r25, 0
    1b54:	90 93 f1 02 	sts	0x02F1, r25
			bumper_right = interrupt_status.bumperRight;
    1b58:	82 fb       	bst	r24, 2
    1b5a:	88 27       	eor	r24, r24
    1b5c:	80 f9       	bld	r24, 0
    1b5e:	80 93 2a 03 	sts	0x032A, r24
			BUMPERS_stateChangedHandler();
    1b62:	e0 91 78 00 	lds	r30, 0x0078
    1b66:	f0 91 79 00 	lds	r31, 0x0079
    1b6a:	09 95       	icall
		}

		// ------------------------------------
		// Check if there was a RC5 Reception:
		uint8_t readBuf[2];
		if(compare & MASK_RC5) 
    1b6c:	13 ff       	sbrs	r17, 3
    1b6e:	17 c0       	rjmp	.+46     	; 0x1b9e <checkRP6Status+0xa6>
		{
			I2CTWI_transmitByte(I2C_RP6_BASE_ADR,I2C_REG_RC5_ADR);
    1b70:	6b e1       	ldi	r22, 0x1B	; 27
    1b72:	8a e0       	ldi	r24, 0x0A	; 10
    1b74:	0e 94 51 0b 	call	0x16a2	; 0x16a2 <I2CTWI_transmitByte>
			I2CTWI_readBytes(I2C_RP6_BASE_ADR, readBuf, 2);
    1b78:	42 e0       	ldi	r20, 0x02	; 2
    1b7a:	be 01       	movw	r22, r28
    1b7c:	6f 5f       	subi	r22, 0xFF	; 255
    1b7e:	7f 4f       	sbci	r23, 0xFF	; 255
    1b80:	8a e0       	ldi	r24, 0x0A	; 10
    1b82:	0e 94 e8 0a 	call	0x15d0	; 0x15d0 <I2CTWI_readBytes>
			RC5data_t tmp;
			tmp.data = (readBuf[0] << 6) | (readBuf[1]);
    1b86:	89 81       	ldd	r24, Y+1	; 0x01
    1b88:	20 e4       	ldi	r18, 0x40	; 64
    1b8a:	82 9f       	mul	r24, r18
    1b8c:	c0 01       	movw	r24, r0
    1b8e:	11 24       	eor	r1, r1
    1b90:	2a 81       	ldd	r18, Y+2	; 0x02
			IRCOMM_RC5dataReadyHandler(tmp);
    1b92:	e0 91 74 00 	lds	r30, 0x0074
    1b96:	f0 91 75 00 	lds	r31, 0x0075
    1b9a:	82 2b       	or	r24, r18
    1b9c:	09 95       	icall
		}
		
		// ------------------------------------
		// Check for low Battery event:
		if(compare & MASK_BATLOW) 
    1b9e:	10 ff       	sbrs	r17, 0
    1ba0:	1d c0       	rjmp	.+58     	; 0x1bdc <checkRP6Status+0xe4>
		{
			I2CTWI_transmitByte(I2C_RP6_BASE_ADR,I2C_REG_ADC_UBAT_L);
    1ba2:	65 e1       	ldi	r22, 0x15	; 21
    1ba4:	8a e0       	ldi	r24, 0x0A	; 10
    1ba6:	0e 94 51 0b 	call	0x16a2	; 0x16a2 <I2CTWI_transmitByte>
			I2CTWI_readBytes(I2C_RP6_BASE_ADR, readBuf, 2);
    1baa:	42 e0       	ldi	r20, 0x02	; 2
    1bac:	be 01       	movw	r22, r28
    1bae:	6f 5f       	subi	r22, 0xFF	; 255
    1bb0:	7f 4f       	sbci	r23, 0xFF	; 255
    1bb2:	8a e0       	ldi	r24, 0x0A	; 10
    1bb4:	0e 94 e8 0a 	call	0x15d0	; 0x15d0 <I2CTWI_readBytes>
			adcBat = (readBuf[1] << 8) | (readBuf[0]);
    1bb8:	8a 81       	ldd	r24, Y+2	; 0x02
    1bba:	90 e0       	ldi	r25, 0x00	; 0
    1bbc:	98 2f       	mov	r25, r24
    1bbe:	88 27       	eor	r24, r24
    1bc0:	29 81       	ldd	r18, Y+1	; 0x01
    1bc2:	82 2b       	or	r24, r18
    1bc4:	90 93 2c 03 	sts	0x032C, r25
    1bc8:	80 93 2b 03 	sts	0x032B, r24
			BATTERY_lowVoltageHandler(interrupt_status.batLow);
    1bcc:	80 91 1f 02 	lds	r24, 0x021F
    1bd0:	e0 91 70 00 	lds	r30, 0x0070
    1bd4:	f0 91 71 00 	lds	r31, 0x0071
    1bd8:	81 70       	andi	r24, 0x01	; 1
    1bda:	09 95       	icall
		}
		
		// ------------------------------------
		// Check for WDT request:
		status.byte = messageBuf[1];
    1bdc:	80 91 30 03 	lds	r24, 0x0330
    1be0:	80 93 42 02 	sts	0x0242, r24
		if(status.wdtRequest)
    1be4:	83 ff       	sbrs	r24, 3
    1be6:	05 c0       	rjmp	.+10     	; 0x1bf2 <checkRP6Status+0xfa>
			WDT_requestHandler();
    1be8:	e0 91 6e 00 	lds	r30, 0x006E
    1bec:	f0 91 6f 00 	lds	r31, 0x006F
    1bf0:	09 95       	icall
		
		// ------------------------------------
		// Update drive Status:
		drive_status.byte = messageBuf[2];
    1bf2:	80 91 31 03 	lds	r24, 0x0331
    1bf6:	80 93 22 02 	sts	0x0222, r24
		if(interrupt_status.driveSystemChange)
    1bfa:	80 91 1f 02 	lds	r24, 0x021F
    1bfe:	87 ff       	sbrs	r24, 7
    1c00:	05 c0       	rjmp	.+10     	; 0x1c0c <checkRP6Status+0x114>
		{
			MOTIONCONTROL_stateChangedHandler();
    1c02:	e0 91 76 00 	lds	r30, 0x0076
    1c06:	f0 91 77 00 	lds	r31, 0x0077
    1c0a:	09 95       	icall
		}

		block = false; // clear block flag! 
    1c0c:	10 92 1e 02 	sts	0x021E, r1
		return true; // It was an INT0 request --> return true;
    1c10:	81 e0       	ldi	r24, 0x01	; 1
    1c12:	01 c0       	rjmp	.+2      	; 0x1c16 <checkRP6Status+0x11e>
	}
	return false; // It was not an INT0 request --> return false
    1c14:	80 e0       	ldi	r24, 0x00	; 0
}
    1c16:	0f 90       	pop	r0
    1c18:	0f 90       	pop	r0
    1c1a:	df 91       	pop	r29
    1c1c:	cf 91       	pop	r28
    1c1e:	1f 91       	pop	r17
    1c20:	08 95       	ret

00001c22 <I2C_requestedDataReady>:

//TODO: bes: requestedDataHandler now absorbs al information of data request...
//           requests from other devices will be lost...
void I2C_requestedDataReady(uint8_t dataRequestID)
{
	checkRP6Status(dataRequestID);
    1c22:	0c 94 7c 0d 	jmp	0x1af8	; 0x1af8 <checkRP6Status>

00001c26 <waitForTransmitComplete>:
 * movement register gets updated via the I2C Bus and the function behaves like 
 * with the RP6Lib - especially the drive_status.movementComplete flag!
 */
void waitForTransmitComplete(void)
{
	while(I2CTWI_isBusy() || TWI_operation != I2CTWI_NO_OPERATION) task_I2CTWI();
    1c26:	06 b6       	in	r0, 0x36	; 54
    1c28:	00 fe       	sbrs	r0, 0
    1c2a:	03 c0       	rjmp	.+6      	; 0x1c32 <waitForTransmitComplete+0xc>
    1c2c:	0e 94 e8 09 	call	0x13d0	; 0x13d0 <task_I2CTWI>
    1c30:	fa cf       	rjmp	.-12     	; 0x1c26 <waitForTransmitComplete>
    1c32:	80 91 d4 01 	lds	r24, 0x01D4
    1c36:	81 11       	cpse	r24, r1
    1c38:	f9 cf       	rjmp	.-14     	; 0x1c2c <waitForTransmitComplete+0x6>
	mSleep(6);
    1c3a:	86 e0       	ldi	r24, 0x06	; 6
    1c3c:	90 e0       	ldi	r25, 0x00	; 0
    1c3e:	0e 94 fb 06 	call	0xdf6	; 0xdf6 <mSleep>
	task_checkINT0();
    1c42:	0e 94 6c 0d 	call	0x1ad8	; 0x1ad8 <task_checkINT0>
	while(I2CTWI_isBusy() || TWI_operation != I2CTWI_NO_OPERATION) task_I2CTWI();
    1c46:	06 b6       	in	r0, 0x36	; 54
    1c48:	00 fe       	sbrs	r0, 0
    1c4a:	03 c0       	rjmp	.+6      	; 0x1c52 <waitForTransmitComplete+0x2c>
    1c4c:	0e 94 e8 09 	call	0x13d0	; 0x13d0 <task_I2CTWI>
    1c50:	fa cf       	rjmp	.-12     	; 0x1c46 <waitForTransmitComplete+0x20>
    1c52:	80 91 d4 01 	lds	r24, 0x01D4
    1c56:	81 11       	cpse	r24, r1
    1c58:	f9 cf       	rjmp	.-14     	; 0x1c4c <waitForTransmitComplete+0x26>
}
    1c5a:	08 95       	ret

00001c5c <moveAtSpeed>:

/**
 * Move at speed function - just the same as with RP6Lib!
 */
void moveAtSpeed(uint8_t desired_speed_left, uint8_t desired_speed_right)
{
    1c5c:	0f 93       	push	r16
	I2CTWI_transmit4Bytes(I2C_RP6_BASE_ADR, 0, CMD_MOVE_AT_SPEED, desired_speed_left, desired_speed_right );
    1c5e:	06 2f       	mov	r16, r22
    1c60:	28 2f       	mov	r18, r24
    1c62:	45 e0       	ldi	r20, 0x05	; 5
    1c64:	60 e0       	ldi	r22, 0x00	; 0
    1c66:	8a e0       	ldi	r24, 0x0A	; 10
    1c68:	0e 94 ba 0b 	call	0x1774	; 0x1774 <I2CTWI_transmit4Bytes>
	while(I2CTWI_isBusy() || TWI_operation != I2CTWI_NO_OPERATION) task_I2CTWI();
    1c6c:	06 b6       	in	r0, 0x36	; 54
    1c6e:	00 fe       	sbrs	r0, 0
    1c70:	03 c0       	rjmp	.+6      	; 0x1c78 <moveAtSpeed+0x1c>
    1c72:	0e 94 e8 09 	call	0x13d0	; 0x13d0 <task_I2CTWI>
    1c76:	fa cf       	rjmp	.-12     	; 0x1c6c <moveAtSpeed+0x10>
    1c78:	80 91 d4 01 	lds	r24, 0x01D4
    1c7c:	81 11       	cpse	r24, r1
    1c7e:	f9 cf       	rjmp	.-14     	; 0x1c72 <moveAtSpeed+0x16>
}
    1c80:	0f 91       	pop	r16
    1c82:	08 95       	ret

00001c84 <changeDirection>:
/**
 * Change direction function - just the same as with RP6Lib!
 */
void changeDirection(uint8_t dir)
{
	I2CTWI_transmit3Bytes(I2C_RP6_BASE_ADR, 0, CMD_CHANGE_DIR, dir);
    1c84:	28 2f       	mov	r18, r24
    1c86:	46 e0       	ldi	r20, 0x06	; 6
    1c88:	60 e0       	ldi	r22, 0x00	; 0
    1c8a:	8a e0       	ldi	r24, 0x0A	; 10
    1c8c:	0e 94 92 0b 	call	0x1724	; 0x1724 <I2CTWI_transmit3Bytes>
	while(I2CTWI_isBusy() || TWI_operation != I2CTWI_NO_OPERATION) task_I2CTWI();
    1c90:	06 b6       	in	r0, 0x36	; 54
    1c92:	00 fe       	sbrs	r0, 0
    1c94:	03 c0       	rjmp	.+6      	; 0x1c9c <changeDirection+0x18>
    1c96:	0e 94 e8 09 	call	0x13d0	; 0x13d0 <task_I2CTWI>
    1c9a:	fa cf       	rjmp	.-12     	; 0x1c90 <changeDirection+0xc>
    1c9c:	80 91 d4 01 	lds	r24, 0x01D4
    1ca0:	81 11       	cpse	r24, r1
    1ca2:	f9 cf       	rjmp	.-14     	; 0x1c96 <changeDirection+0x12>
}
    1ca4:	08 95       	ret

00001ca6 <stop>:
/**
 * Stop function - just the same as with RP6Lib!
 */
void stop(void)
{
	I2CTWI_transmit2Bytes(I2C_RP6_BASE_ADR, 0, CMD_STOP);
    1ca6:	44 e0       	ldi	r20, 0x04	; 4
    1ca8:	60 e0       	ldi	r22, 0x00	; 0
    1caa:	8a e0       	ldi	r24, 0x0A	; 10
    1cac:	0e 94 6f 0b 	call	0x16de	; 0x16de <I2CTWI_transmit2Bytes>
	waitForTransmitComplete();
    1cb0:	0c 94 13 0e 	jmp	0x1c26	; 0x1c26 <waitForTransmitComplete>

00001cb4 <rotate>:

/**
 * Rotate function - just the same as with RP6Lib!
 */
void rotate(uint8_t desired_speed, uint8_t dir, uint16_t angle, uint8_t blocking)
{
    1cb4:	cf 93       	push	r28
    1cb6:	df 93       	push	r29
    1cb8:	1f 92       	push	r1
    1cba:	cd b7       	in	r28, 0x3d	; 61
    1cbc:	de b7       	in	r29, 0x3e	; 62
	transmit_buffer[0] = 0;
    1cbe:	10 92 0c 03 	sts	0x030C, r1
	transmit_buffer[1] = CMD_ROTATE;
    1cc2:	98 e0       	ldi	r25, 0x08	; 8
    1cc4:	90 93 0d 03 	sts	0x030D, r25
	transmit_buffer[2] = desired_speed;
    1cc8:	80 93 0e 03 	sts	0x030E, r24
	transmit_buffer[3] = dir;
    1ccc:	60 93 0f 03 	sts	0x030F, r22
	transmit_buffer[4] = ((angle>>8) & 0xFF);
    1cd0:	50 93 10 03 	sts	0x0310, r21
	transmit_buffer[5] = (angle & 0xFF);
    1cd4:	40 93 11 03 	sts	0x0311, r20
	I2CTWI_transmitBytes(I2C_RP6_BASE_ADR, transmit_buffer, 6 );
    1cd8:	46 e0       	ldi	r20, 0x06	; 6
    1cda:	6c e0       	ldi	r22, 0x0C	; 12
    1cdc:	73 e0       	ldi	r23, 0x03	; 3
    1cde:	8a e0       	ldi	r24, 0x0A	; 10
    1ce0:	29 83       	std	Y+1, r18	; 0x01
    1ce2:	0e 94 e6 0b 	call	0x17cc	; 0x17cc <I2CTWI_transmitBytes>
	// We need to wait until the I2C Bus transfer is complete and then 
	// check the movement status...
	waitForTransmitComplete();
    1ce6:	0e 94 13 0e 	call	0x1c26	; 0x1c26 <waitForTransmitComplete>
	while(blocking && !drive_status.movementComplete) 
    1cea:	29 81       	ldd	r18, Y+1	; 0x01
    1cec:	22 23       	and	r18, r18
    1cee:	49 f0       	breq	.+18     	; 0x1d02 <rotate+0x4e>
    1cf0:	80 91 22 02 	lds	r24, 0x0222
    1cf4:	80 fd       	sbrc	r24, 0
    1cf6:	05 c0       	rjmp	.+10     	; 0x1d02 <rotate+0x4e>
	{
		task_checkINT0();
    1cf8:	0e 94 6c 0d 	call	0x1ad8	; 0x1ad8 <task_checkINT0>
		task_I2CTWI();
    1cfc:	0e 94 e8 09 	call	0x13d0	; 0x13d0 <task_I2CTWI>
    1d00:	f7 cf       	rjmp	.-18     	; 0x1cf0 <rotate+0x3c>
	}
}
    1d02:	0f 90       	pop	r0
    1d04:	df 91       	pop	r29
    1d06:	cf 91       	pop	r28
    1d08:	08 95       	ret

00001d0a <move>:

/**
 * Move function - just the same as with RP6Lib!
 */
void move(uint8_t desired_speed, uint8_t dir, uint16_t distance, uint8_t blocking)
{
    1d0a:	cf 93       	push	r28
    1d0c:	df 93       	push	r29
    1d0e:	1f 92       	push	r1
    1d10:	cd b7       	in	r28, 0x3d	; 61
    1d12:	de b7       	in	r29, 0x3e	; 62
	transmit_buffer[0] = 0;
    1d14:	10 92 0c 03 	sts	0x030C, r1
	transmit_buffer[1] = CMD_MOVE;
    1d18:	97 e0       	ldi	r25, 0x07	; 7
    1d1a:	90 93 0d 03 	sts	0x030D, r25
	transmit_buffer[2] = desired_speed;
    1d1e:	80 93 0e 03 	sts	0x030E, r24
	transmit_buffer[3] = dir;
    1d22:	60 93 0f 03 	sts	0x030F, r22
	transmit_buffer[4] = ((distance>>8) & 0xFF);
    1d26:	50 93 10 03 	sts	0x0310, r21
	transmit_buffer[5] = (distance & 0xFF);
    1d2a:	40 93 11 03 	sts	0x0311, r20
	I2CTWI_transmitBytes(I2C_RP6_BASE_ADR, transmit_buffer, 6 );
    1d2e:	46 e0       	ldi	r20, 0x06	; 6
    1d30:	6c e0       	ldi	r22, 0x0C	; 12
    1d32:	73 e0       	ldi	r23, 0x03	; 3
    1d34:	8a e0       	ldi	r24, 0x0A	; 10
    1d36:	29 83       	std	Y+1, r18	; 0x01
    1d38:	0e 94 e6 0b 	call	0x17cc	; 0x17cc <I2CTWI_transmitBytes>
	waitForTransmitComplete();
    1d3c:	0e 94 13 0e 	call	0x1c26	; 0x1c26 <waitForTransmitComplete>
	while(blocking && !drive_status.movementComplete) 
    1d40:	29 81       	ldd	r18, Y+1	; 0x01
    1d42:	22 23       	and	r18, r18
    1d44:	49 f0       	breq	.+18     	; 0x1d58 <move+0x4e>
    1d46:	80 91 22 02 	lds	r24, 0x0222
    1d4a:	80 fd       	sbrc	r24, 0
    1d4c:	05 c0       	rjmp	.+10     	; 0x1d58 <move+0x4e>
	{
		task_checkINT0();
    1d4e:	0e 94 6c 0d 	call	0x1ad8	; 0x1ad8 <task_checkINT0>
		task_I2CTWI();
    1d52:	0e 94 e8 09 	call	0x13d0	; 0x13d0 <task_I2CTWI>
    1d56:	f7 cf       	rjmp	.-18     	; 0x1d46 <move+0x3c>
	}
}
    1d58:	0f 90       	pop	r0
    1d5a:	df 91       	pop	r29
    1d5c:	cf 91       	pop	r28
    1d5e:	08 95       	ret

00001d60 <updateStatusLEDs>:
 * Same as on RP6Lib - takes value from statusLEDs register and sets LEDs
 * on the Mainboard.
 */
void updateStatusLEDs(void)
{
	I2CTWI_transmit3Bytes(I2C_RP6_BASE_ADR, 0, 3, statusLEDs.byte);
    1d60:	20 91 23 02 	lds	r18, 0x0223
    1d64:	43 e0       	ldi	r20, 0x03	; 3
    1d66:	60 e0       	ldi	r22, 0x00	; 0
    1d68:	8a e0       	ldi	r24, 0x0A	; 10
    1d6a:	0c 94 92 0b 	jmp	0x1724	; 0x1724 <I2CTWI_transmit3Bytes>

00001d6e <setRP6LEDs>:
 * defined in RP6ControlLib.
 */
//inline void setRP6LEDs(uint8_t leds)
inline void setRP6LEDs(uint8_t leds)
{
	statusLEDs.byte = leds;
    1d6e:	80 93 23 02 	sts	0x0223, r24
	updateStatusLEDs();
    1d72:	0c 94 b0 0e 	jmp	0x1d60	; 0x1d60 <updateStatusLEDs>

00001d76 <main>:
// Main - The program starts here:
//====================================================================================
/************************************************************************************/

int main(void)
{
    1d76:	cf 93       	push	r28
    1d78:	df 93       	push	r29
    1d7a:	00 d0       	rcall	.+0      	; 0x1d7c <main+0x6>
    1d7c:	00 d0       	rcall	.+0      	; 0x1d7e <main+0x8>
    1d7e:	00 d0       	rcall	.+0      	; 0x1d80 <main+0xa>
    1d80:	cd b7       	in	r28, 0x3d	; 61
    1d82:	de b7       	in	r29, 0x3e	; 62
	initRP6Control(); 	
    1d84:	0e 94 4f 08 	call	0x109e	; 0x109e <initRP6Control>
	initI2C_RP6Lib();
    1d88:	0e 94 8b 0c 	call	0x1916	; 0x1916 <initI2C_RP6Lib>
	I2CTWI_setTransmissionErrorHandler(I2C_transmissionError);
    1d8c:	89 e8       	ldi	r24, 0x89	; 137
    1d8e:	90 e0       	ldi	r25, 0x00	; 0
    1d90:	0e 94 b9 09 	call	0x1372	; 0x1372 <I2CTWI_setTransmissionErrorHandler>

	WDT_setRequestHandler(watchDogRequest); 
    1d94:	88 e9       	ldi	r24, 0x98	; 152
    1d96:	90 e0       	ldi	r25, 0x00	; 0
    1d98:	0e 94 ab 0c 	call	0x1956	; 0x1956 <WDT_setRequestHandler>

	DDRC &= ~IO_PC2; 
    1d9c:	a2 98       	cbi	0x14, 2	; 20
	DDRC &= ~IO_PC3;  
    1d9e:	a3 98       	cbi	0x14, 3	; 20
	DDRC &= ~IO_PC5; 
    1da0:	a5 98       	cbi	0x14, 5	; 20

	DDRA &= ~ADC5; 
    1da2:	d5 98       	cbi	0x1a, 5	; 26

	

	#ifdef DEBUG

		if(PINC & IO_PC2) 
    1da4:	9a 9b       	sbis	0x13, 2	; 19
    1da6:	03 c0       	rjmp	.+6      	; 0x1dae <main+0x38>
			writeString_P("\n\nPC2 is HIGH!\n\n");
    1da8:	86 ea       	ldi	r24, 0xA6	; 166
    1daa:	90 e0       	ldi	r25, 0x00	; 0
    1dac:	02 c0       	rjmp	.+4      	; 0x1db2 <main+0x3c>
		else
			writeString_P("\n\nPC2 is LOW!\n\n");
    1dae:	86 e9       	ldi	r24, 0x96	; 150
    1db0:	90 e0       	ldi	r25, 0x00	; 0
    1db2:	0e 94 8c 08 	call	0x1118	; 0x1118 <writeNStringP>

		if(PINC & IO_PC3) 
    1db6:	9b 9b       	sbis	0x13, 3	; 19
    1db8:	03 c0       	rjmp	.+6      	; 0x1dc0 <main+0x4a>
			writeString_P("\n\nPC3 is HIGH!\n\n");
    1dba:	85 e8       	ldi	r24, 0x85	; 133
    1dbc:	90 e0       	ldi	r25, 0x00	; 0
    1dbe:	02 c0       	rjmp	.+4      	; 0x1dc4 <main+0x4e>
		else
			writeString_P("\n\nPC3 is LOW!\n\n");
    1dc0:	85 e7       	ldi	r24, 0x75	; 117
    1dc2:	90 e0       	ldi	r25, 0x00	; 0
    1dc4:	0e 94 8c 08 	call	0x1118	; 0x1118 <writeNStringP>

		if(PINC & IO_PC5) 
    1dc8:	9d 9b       	sbis	0x13, 5	; 19
    1dca:	03 c0       	rjmp	.+6      	; 0x1dd2 <main+0x5c>
			writeString_P("\n\nPC5 is HIGH!\n\n");
    1dcc:	84 e6       	ldi	r24, 0x64	; 100
    1dce:	90 e0       	ldi	r25, 0x00	; 0
    1dd0:	02 c0       	rjmp	.+4      	; 0x1dd6 <main+0x60>
		else
			writeString_P("\n\nPC5 is LOW!\n\n");
    1dd2:	84 e5       	ldi	r24, 0x54	; 84
    1dd4:	90 e0       	ldi	r25, 0x00	; 0
    1dd6:	0e 94 8c 08 	call	0x1118	; 0x1118 <writeNStringP>
	#endif

	

	startStopwatch1();
    1dda:	80 91 b9 02 	lds	r24, 0x02B9
    1dde:	81 60       	ori	r24, 0x01	; 1
    1de0:	80 93 b9 02 	sts	0x02B9, r24
	startStopwatch2();	
    1de4:	80 91 b9 02 	lds	r24, 0x02B9
    1de8:	82 60       	ori	r24, 0x02	; 2
    1dea:	80 93 b9 02 	sts	0x02B9, r24

	// Setup ACS power:
	I2CTWI_transmit3Bytes(I2C_RP6_BASE_ADR, 0, CMD_SET_ACS_POWER, ACS_PWR_MED);
    1dee:	22 e0       	ldi	r18, 0x02	; 2
    1df0:	49 e0       	ldi	r20, 0x09	; 9
    1df2:	60 e0       	ldi	r22, 0x00	; 0
    1df4:	8a e0       	ldi	r24, 0x0A	; 10
    1df6:	0e 94 92 0b 	call	0x1724	; 0x1724 <I2CTWI_transmit3Bytes>
	// Enable Watchdog for Interrupt requests:
	I2CTWI_transmit3Bytes(I2C_RP6_BASE_ADR, 0, CMD_SET_WDT, true);
    1dfa:	21 e0       	ldi	r18, 0x01	; 1
    1dfc:	4b e0       	ldi	r20, 0x0B	; 11
    1dfe:	60 e0       	ldi	r22, 0x00	; 0
    1e00:	8a e0       	ldi	r24, 0x0A	; 10
    1e02:	0e 94 92 0b 	call	0x1724	; 0x1724 <I2CTWI_transmit3Bytes>
	// Enable timed watchdog requests:
	I2CTWI_transmit3Bytes(I2C_RP6_BASE_ADR, 0, CMD_SET_WDT_RQ, true);
    1e06:	21 e0       	ldi	r18, 0x01	; 1
    1e08:	4c e0       	ldi	r20, 0x0C	; 12
    1e0a:	60 e0       	ldi	r22, 0x00	; 0
    1e0c:	8a e0       	ldi	r24, 0x0A	; 10
    1e0e:	0e 94 92 0b 	call	0x1724	; 0x1724 <I2CTWI_transmit3Bytes>
	
	BUMPERS_setStateChangedHandler(buttenChanged);
    1e12:	86 e3       	ldi	r24, 0x36	; 54
    1e14:	94 e0       	ldi	r25, 0x04	; 4
    1e16:	0e 94 92 0c 	call	0x1924	; 0x1924 <BUMPERS_setStateChangedHandler>

	initMPU9250();
    1e1a:	0e 94 06 02 	call	0x40c	; 0x40c <initMPU9250>
	gyroData gData;

	bool arrayIsFilled = false;
	uint8_t counter = 0;

	changeDirection(FWD);
    1e1e:	80 e0       	ldi	r24, 0x00	; 0
    1e20:	0e 94 42 0e 	call	0x1c84	; 0x1c84 <changeDirection>

	while(true)
	{
		task_checkINT0();
    1e24:	0e 94 6c 0d 	call	0x1ad8	; 0x1ad8 <task_checkINT0>
	    task_I2CTWI();
    1e28:	0e 94 e8 09 	call	0x13d0	; 0x13d0 <task_I2CTWI>

		if(getStopwatch1() > 300)
    1e2c:	80 91 ba 02 	lds	r24, 0x02BA
    1e30:	90 91 bb 02 	lds	r25, 0x02BB
    1e34:	8d 32       	cpi	r24, 0x2D	; 45
    1e36:	91 40       	sbci	r25, 0x01	; 1
    1e38:	30 f0       	brcs	.+12     	; 0x1e46 <main+0xd0>
		{
			
			task_checkButtonChanged();
    1e3a:	0e 94 d3 00 	call	0x1a6	; 0x1a6 <task_checkButtonChanged>
			setStopwatch1(0);
    1e3e:	10 92 bb 02 	sts	0x02BB, r1
    1e42:	10 92 ba 02 	sts	0x02BA, r1
		}

		if(!pressed)
    1e46:	80 91 cb 01 	lds	r24, 0x01CB
    1e4a:	81 11       	cpse	r24, r1
    1e4c:	22 c0       	rjmp	.+68     	; 0x1e92 <main+0x11c>
		{
			setLEDs(0b0);
    1e4e:	0e 94 c7 05 	call	0xb8e	; 0xb8e <setLEDs>

			moveAtSpeed(60,60);
    1e52:	6c e3       	ldi	r22, 0x3C	; 60
    1e54:	8c e3       	ldi	r24, 0x3C	; 60
    1e56:	0e 94 2e 0e 	call	0x1c5c	; 0x1c5c <moveAtSpeed>

			if(getStopwatch2() > 500)
    1e5a:	80 91 bc 02 	lds	r24, 0x02BC
    1e5e:	90 91 bd 02 	lds	r25, 0x02BD
    1e62:	85 3f       	cpi	r24, 0xF5	; 245
    1e64:	91 40       	sbci	r25, 0x01	; 1
    1e66:	f0 f2       	brcs	.-68     	; 0x1e24 <main+0xae>
			{
				getAllSensors();
    1e68:	0e 94 b5 0c 	call	0x196a	; 0x196a <getAllSensors>
				saveSpeedData(mleft_speed, mright_speed);
    1e6c:	60 91 29 03 	lds	r22, 0x0329
    1e70:	80 91 17 03 	lds	r24, 0x0317
    1e74:	0e 94 72 01 	call	0x2e4	; 0x2e4 <saveSpeedData>
				saveGyroData(gData);
    1e78:	49 81       	ldd	r20, Y+1	; 0x01
    1e7a:	5a 81       	ldd	r21, Y+2	; 0x02
    1e7c:	6b 81       	ldd	r22, Y+3	; 0x03
    1e7e:	7c 81       	ldd	r23, Y+4	; 0x04
    1e80:	8d 81       	ldd	r24, Y+5	; 0x05
    1e82:	9e 81       	ldd	r25, Y+6	; 0x06
    1e84:	0e 94 44 02 	call	0x488	; 0x488 <saveGyroData>

				setStopwatch2(0);
    1e88:	10 92 bd 02 	sts	0x02BD, r1
    1e8c:	10 92 bc 02 	sts	0x02BC, r1
    1e90:	c9 cf       	rjmp	.-110    	; 0x1e24 <main+0xae>
			}
		}
		else if(!crashInfoWasSend && pressed)
    1e92:	80 91 ca 01 	lds	r24, 0x01CA
    1e96:	81 11       	cpse	r24, r1
    1e98:	07 c0       	rjmp	.+14     	; 0x1ea8 <main+0x132>
		{
			crashInfoWasSend = assignCrashInfo();
    1e9a:	0e 94 32 03 	call	0x664	; 0x664 <assignCrashInfo>
    1e9e:	80 93 ca 01 	sts	0x01CA, r24
			sendCrashInfo();
    1ea2:	0e 94 ff 03 	call	0x7fe	; 0x7fe <sendCrashInfo>
    1ea6:	be cf       	rjmp	.-132    	; 0x1e24 <main+0xae>
		} 
		else if(crashInfoWasSend && pressed)
		{
			stop();
    1ea8:	0e 94 53 0e 	call	0x1ca6	; 0x1ca6 <stop>
    1eac:	bb cf       	rjmp	.-138    	; 0x1e24 <main+0xae>

00001eae <__fixsfsi>:
    1eae:	04 d0       	rcall	.+8      	; 0x1eb8 <__fixunssfsi>
    1eb0:	68 94       	set
    1eb2:	b1 11       	cpse	r27, r1
    1eb4:	8d c0       	rjmp	.+282    	; 0x1fd0 <__fp_szero>
    1eb6:	08 95       	ret

00001eb8 <__fixunssfsi>:
    1eb8:	70 d0       	rcall	.+224    	; 0x1f9a <__fp_splitA>
    1eba:	88 f0       	brcs	.+34     	; 0x1ede <__fixunssfsi+0x26>
    1ebc:	9f 57       	subi	r25, 0x7F	; 127
    1ebe:	90 f0       	brcs	.+36     	; 0x1ee4 <__fixunssfsi+0x2c>
    1ec0:	b9 2f       	mov	r27, r25
    1ec2:	99 27       	eor	r25, r25
    1ec4:	b7 51       	subi	r27, 0x17	; 23
    1ec6:	a0 f0       	brcs	.+40     	; 0x1ef0 <__fixunssfsi+0x38>
    1ec8:	d1 f0       	breq	.+52     	; 0x1efe <__fixunssfsi+0x46>
    1eca:	66 0f       	add	r22, r22
    1ecc:	77 1f       	adc	r23, r23
    1ece:	88 1f       	adc	r24, r24
    1ed0:	99 1f       	adc	r25, r25
    1ed2:	1a f0       	brmi	.+6      	; 0x1eda <__fixunssfsi+0x22>
    1ed4:	ba 95       	dec	r27
    1ed6:	c9 f7       	brne	.-14     	; 0x1eca <__fixunssfsi+0x12>
    1ed8:	12 c0       	rjmp	.+36     	; 0x1efe <__fixunssfsi+0x46>
    1eda:	b1 30       	cpi	r27, 0x01	; 1
    1edc:	81 f0       	breq	.+32     	; 0x1efe <__fixunssfsi+0x46>
    1ede:	77 d0       	rcall	.+238    	; 0x1fce <__fp_zero>
    1ee0:	b1 e0       	ldi	r27, 0x01	; 1
    1ee2:	08 95       	ret
    1ee4:	74 c0       	rjmp	.+232    	; 0x1fce <__fp_zero>
    1ee6:	67 2f       	mov	r22, r23
    1ee8:	78 2f       	mov	r23, r24
    1eea:	88 27       	eor	r24, r24
    1eec:	b8 5f       	subi	r27, 0xF8	; 248
    1eee:	39 f0       	breq	.+14     	; 0x1efe <__fixunssfsi+0x46>
    1ef0:	b9 3f       	cpi	r27, 0xF9	; 249
    1ef2:	cc f3       	brlt	.-14     	; 0x1ee6 <__fixunssfsi+0x2e>
    1ef4:	86 95       	lsr	r24
    1ef6:	77 95       	ror	r23
    1ef8:	67 95       	ror	r22
    1efa:	b3 95       	inc	r27
    1efc:	d9 f7       	brne	.-10     	; 0x1ef4 <__fixunssfsi+0x3c>
    1efe:	3e f4       	brtc	.+14     	; 0x1f0e <__fixunssfsi+0x56>
    1f00:	90 95       	com	r25
    1f02:	80 95       	com	r24
    1f04:	70 95       	com	r23
    1f06:	61 95       	neg	r22
    1f08:	7f 4f       	sbci	r23, 0xFF	; 255
    1f0a:	8f 4f       	sbci	r24, 0xFF	; 255
    1f0c:	9f 4f       	sbci	r25, 0xFF	; 255
    1f0e:	08 95       	ret

00001f10 <__floatunsisf>:
    1f10:	e8 94       	clt
    1f12:	09 c0       	rjmp	.+18     	; 0x1f26 <__floatsisf+0x12>

00001f14 <__floatsisf>:
    1f14:	97 fb       	bst	r25, 7
    1f16:	3e f4       	brtc	.+14     	; 0x1f26 <__floatsisf+0x12>
    1f18:	90 95       	com	r25
    1f1a:	80 95       	com	r24
    1f1c:	70 95       	com	r23
    1f1e:	61 95       	neg	r22
    1f20:	7f 4f       	sbci	r23, 0xFF	; 255
    1f22:	8f 4f       	sbci	r24, 0xFF	; 255
    1f24:	9f 4f       	sbci	r25, 0xFF	; 255
    1f26:	99 23       	and	r25, r25
    1f28:	a9 f0       	breq	.+42     	; 0x1f54 <__floatsisf+0x40>
    1f2a:	f9 2f       	mov	r31, r25
    1f2c:	96 e9       	ldi	r25, 0x96	; 150
    1f2e:	bb 27       	eor	r27, r27
    1f30:	93 95       	inc	r25
    1f32:	f6 95       	lsr	r31
    1f34:	87 95       	ror	r24
    1f36:	77 95       	ror	r23
    1f38:	67 95       	ror	r22
    1f3a:	b7 95       	ror	r27
    1f3c:	f1 11       	cpse	r31, r1
    1f3e:	f8 cf       	rjmp	.-16     	; 0x1f30 <__floatsisf+0x1c>
    1f40:	fa f4       	brpl	.+62     	; 0x1f80 <__floatsisf+0x6c>
    1f42:	bb 0f       	add	r27, r27
    1f44:	11 f4       	brne	.+4      	; 0x1f4a <__floatsisf+0x36>
    1f46:	60 ff       	sbrs	r22, 0
    1f48:	1b c0       	rjmp	.+54     	; 0x1f80 <__floatsisf+0x6c>
    1f4a:	6f 5f       	subi	r22, 0xFF	; 255
    1f4c:	7f 4f       	sbci	r23, 0xFF	; 255
    1f4e:	8f 4f       	sbci	r24, 0xFF	; 255
    1f50:	9f 4f       	sbci	r25, 0xFF	; 255
    1f52:	16 c0       	rjmp	.+44     	; 0x1f80 <__floatsisf+0x6c>
    1f54:	88 23       	and	r24, r24
    1f56:	11 f0       	breq	.+4      	; 0x1f5c <__floatsisf+0x48>
    1f58:	96 e9       	ldi	r25, 0x96	; 150
    1f5a:	11 c0       	rjmp	.+34     	; 0x1f7e <__floatsisf+0x6a>
    1f5c:	77 23       	and	r23, r23
    1f5e:	21 f0       	breq	.+8      	; 0x1f68 <__floatsisf+0x54>
    1f60:	9e e8       	ldi	r25, 0x8E	; 142
    1f62:	87 2f       	mov	r24, r23
    1f64:	76 2f       	mov	r23, r22
    1f66:	05 c0       	rjmp	.+10     	; 0x1f72 <__floatsisf+0x5e>
    1f68:	66 23       	and	r22, r22
    1f6a:	71 f0       	breq	.+28     	; 0x1f88 <__floatsisf+0x74>
    1f6c:	96 e8       	ldi	r25, 0x86	; 134
    1f6e:	86 2f       	mov	r24, r22
    1f70:	70 e0       	ldi	r23, 0x00	; 0
    1f72:	60 e0       	ldi	r22, 0x00	; 0
    1f74:	2a f0       	brmi	.+10     	; 0x1f80 <__floatsisf+0x6c>
    1f76:	9a 95       	dec	r25
    1f78:	66 0f       	add	r22, r22
    1f7a:	77 1f       	adc	r23, r23
    1f7c:	88 1f       	adc	r24, r24
    1f7e:	da f7       	brpl	.-10     	; 0x1f76 <__floatsisf+0x62>
    1f80:	88 0f       	add	r24, r24
    1f82:	96 95       	lsr	r25
    1f84:	87 95       	ror	r24
    1f86:	97 f9       	bld	r25, 7
    1f88:	08 95       	ret

00001f8a <__fp_split3>:
    1f8a:	57 fd       	sbrc	r21, 7
    1f8c:	90 58       	subi	r25, 0x80	; 128
    1f8e:	44 0f       	add	r20, r20
    1f90:	55 1f       	adc	r21, r21
    1f92:	59 f0       	breq	.+22     	; 0x1faa <__fp_splitA+0x10>
    1f94:	5f 3f       	cpi	r21, 0xFF	; 255
    1f96:	71 f0       	breq	.+28     	; 0x1fb4 <__fp_splitA+0x1a>
    1f98:	47 95       	ror	r20

00001f9a <__fp_splitA>:
    1f9a:	88 0f       	add	r24, r24
    1f9c:	97 fb       	bst	r25, 7
    1f9e:	99 1f       	adc	r25, r25
    1fa0:	61 f0       	breq	.+24     	; 0x1fba <__fp_splitA+0x20>
    1fa2:	9f 3f       	cpi	r25, 0xFF	; 255
    1fa4:	79 f0       	breq	.+30     	; 0x1fc4 <__fp_splitA+0x2a>
    1fa6:	87 95       	ror	r24
    1fa8:	08 95       	ret
    1faa:	12 16       	cp	r1, r18
    1fac:	13 06       	cpc	r1, r19
    1fae:	14 06       	cpc	r1, r20
    1fb0:	55 1f       	adc	r21, r21
    1fb2:	f2 cf       	rjmp	.-28     	; 0x1f98 <__fp_split3+0xe>
    1fb4:	46 95       	lsr	r20
    1fb6:	f1 df       	rcall	.-30     	; 0x1f9a <__fp_splitA>
    1fb8:	08 c0       	rjmp	.+16     	; 0x1fca <__fp_splitA+0x30>
    1fba:	16 16       	cp	r1, r22
    1fbc:	17 06       	cpc	r1, r23
    1fbe:	18 06       	cpc	r1, r24
    1fc0:	99 1f       	adc	r25, r25
    1fc2:	f1 cf       	rjmp	.-30     	; 0x1fa6 <__fp_splitA+0xc>
    1fc4:	86 95       	lsr	r24
    1fc6:	71 05       	cpc	r23, r1
    1fc8:	61 05       	cpc	r22, r1
    1fca:	08 94       	sec
    1fcc:	08 95       	ret

00001fce <__fp_zero>:
    1fce:	e8 94       	clt

00001fd0 <__fp_szero>:
    1fd0:	bb 27       	eor	r27, r27
    1fd2:	66 27       	eor	r22, r22
    1fd4:	77 27       	eor	r23, r23
    1fd6:	cb 01       	movw	r24, r22
    1fd8:	97 f9       	bld	r25, 7
    1fda:	08 95       	ret

00001fdc <__mulsf3>:
    1fdc:	0b d0       	rcall	.+22     	; 0x1ff4 <__mulsf3x>
    1fde:	78 c0       	rjmp	.+240    	; 0x20d0 <__fp_round>
    1fe0:	69 d0       	rcall	.+210    	; 0x20b4 <__fp_pscA>
    1fe2:	28 f0       	brcs	.+10     	; 0x1fee <__mulsf3+0x12>
    1fe4:	6e d0       	rcall	.+220    	; 0x20c2 <__fp_pscB>
    1fe6:	18 f0       	brcs	.+6      	; 0x1fee <__mulsf3+0x12>
    1fe8:	95 23       	and	r25, r21
    1fea:	09 f0       	breq	.+2      	; 0x1fee <__mulsf3+0x12>
    1fec:	5a c0       	rjmp	.+180    	; 0x20a2 <__fp_inf>
    1fee:	5f c0       	rjmp	.+190    	; 0x20ae <__fp_nan>
    1ff0:	11 24       	eor	r1, r1
    1ff2:	ee cf       	rjmp	.-36     	; 0x1fd0 <__fp_szero>

00001ff4 <__mulsf3x>:
    1ff4:	ca df       	rcall	.-108    	; 0x1f8a <__fp_split3>
    1ff6:	a0 f3       	brcs	.-24     	; 0x1fe0 <__mulsf3+0x4>

00001ff8 <__mulsf3_pse>:
    1ff8:	95 9f       	mul	r25, r21
    1ffa:	d1 f3       	breq	.-12     	; 0x1ff0 <__mulsf3+0x14>
    1ffc:	95 0f       	add	r25, r21
    1ffe:	50 e0       	ldi	r21, 0x00	; 0
    2000:	55 1f       	adc	r21, r21
    2002:	62 9f       	mul	r22, r18
    2004:	f0 01       	movw	r30, r0
    2006:	72 9f       	mul	r23, r18
    2008:	bb 27       	eor	r27, r27
    200a:	f0 0d       	add	r31, r0
    200c:	b1 1d       	adc	r27, r1
    200e:	63 9f       	mul	r22, r19
    2010:	aa 27       	eor	r26, r26
    2012:	f0 0d       	add	r31, r0
    2014:	b1 1d       	adc	r27, r1
    2016:	aa 1f       	adc	r26, r26
    2018:	64 9f       	mul	r22, r20
    201a:	66 27       	eor	r22, r22
    201c:	b0 0d       	add	r27, r0
    201e:	a1 1d       	adc	r26, r1
    2020:	66 1f       	adc	r22, r22
    2022:	82 9f       	mul	r24, r18
    2024:	22 27       	eor	r18, r18
    2026:	b0 0d       	add	r27, r0
    2028:	a1 1d       	adc	r26, r1
    202a:	62 1f       	adc	r22, r18
    202c:	73 9f       	mul	r23, r19
    202e:	b0 0d       	add	r27, r0
    2030:	a1 1d       	adc	r26, r1
    2032:	62 1f       	adc	r22, r18
    2034:	83 9f       	mul	r24, r19
    2036:	a0 0d       	add	r26, r0
    2038:	61 1d       	adc	r22, r1
    203a:	22 1f       	adc	r18, r18
    203c:	74 9f       	mul	r23, r20
    203e:	33 27       	eor	r19, r19
    2040:	a0 0d       	add	r26, r0
    2042:	61 1d       	adc	r22, r1
    2044:	23 1f       	adc	r18, r19
    2046:	84 9f       	mul	r24, r20
    2048:	60 0d       	add	r22, r0
    204a:	21 1d       	adc	r18, r1
    204c:	82 2f       	mov	r24, r18
    204e:	76 2f       	mov	r23, r22
    2050:	6a 2f       	mov	r22, r26
    2052:	11 24       	eor	r1, r1
    2054:	9f 57       	subi	r25, 0x7F	; 127
    2056:	50 40       	sbci	r21, 0x00	; 0
    2058:	8a f0       	brmi	.+34     	; 0x207c <__mulsf3_pse+0x84>
    205a:	e1 f0       	breq	.+56     	; 0x2094 <__mulsf3_pse+0x9c>
    205c:	88 23       	and	r24, r24
    205e:	4a f0       	brmi	.+18     	; 0x2072 <__mulsf3_pse+0x7a>
    2060:	ee 0f       	add	r30, r30
    2062:	ff 1f       	adc	r31, r31
    2064:	bb 1f       	adc	r27, r27
    2066:	66 1f       	adc	r22, r22
    2068:	77 1f       	adc	r23, r23
    206a:	88 1f       	adc	r24, r24
    206c:	91 50       	subi	r25, 0x01	; 1
    206e:	50 40       	sbci	r21, 0x00	; 0
    2070:	a9 f7       	brne	.-22     	; 0x205c <__mulsf3_pse+0x64>
    2072:	9e 3f       	cpi	r25, 0xFE	; 254
    2074:	51 05       	cpc	r21, r1
    2076:	70 f0       	brcs	.+28     	; 0x2094 <__mulsf3_pse+0x9c>
    2078:	14 c0       	rjmp	.+40     	; 0x20a2 <__fp_inf>
    207a:	aa cf       	rjmp	.-172    	; 0x1fd0 <__fp_szero>
    207c:	5f 3f       	cpi	r21, 0xFF	; 255
    207e:	ec f3       	brlt	.-6      	; 0x207a <__mulsf3_pse+0x82>
    2080:	98 3e       	cpi	r25, 0xE8	; 232
    2082:	dc f3       	brlt	.-10     	; 0x207a <__mulsf3_pse+0x82>
    2084:	86 95       	lsr	r24
    2086:	77 95       	ror	r23
    2088:	67 95       	ror	r22
    208a:	b7 95       	ror	r27
    208c:	f7 95       	ror	r31
    208e:	e7 95       	ror	r30
    2090:	9f 5f       	subi	r25, 0xFF	; 255
    2092:	c1 f7       	brne	.-16     	; 0x2084 <__mulsf3_pse+0x8c>
    2094:	fe 2b       	or	r31, r30
    2096:	88 0f       	add	r24, r24
    2098:	91 1d       	adc	r25, r1
    209a:	96 95       	lsr	r25
    209c:	87 95       	ror	r24
    209e:	97 f9       	bld	r25, 7
    20a0:	08 95       	ret

000020a2 <__fp_inf>:
    20a2:	97 f9       	bld	r25, 7
    20a4:	9f 67       	ori	r25, 0x7F	; 127
    20a6:	80 e8       	ldi	r24, 0x80	; 128
    20a8:	70 e0       	ldi	r23, 0x00	; 0
    20aa:	60 e0       	ldi	r22, 0x00	; 0
    20ac:	08 95       	ret

000020ae <__fp_nan>:
    20ae:	9f ef       	ldi	r25, 0xFF	; 255
    20b0:	80 ec       	ldi	r24, 0xC0	; 192
    20b2:	08 95       	ret

000020b4 <__fp_pscA>:
    20b4:	00 24       	eor	r0, r0
    20b6:	0a 94       	dec	r0
    20b8:	16 16       	cp	r1, r22
    20ba:	17 06       	cpc	r1, r23
    20bc:	18 06       	cpc	r1, r24
    20be:	09 06       	cpc	r0, r25
    20c0:	08 95       	ret

000020c2 <__fp_pscB>:
    20c2:	00 24       	eor	r0, r0
    20c4:	0a 94       	dec	r0
    20c6:	12 16       	cp	r1, r18
    20c8:	13 06       	cpc	r1, r19
    20ca:	14 06       	cpc	r1, r20
    20cc:	05 06       	cpc	r0, r21
    20ce:	08 95       	ret

000020d0 <__fp_round>:
    20d0:	09 2e       	mov	r0, r25
    20d2:	03 94       	inc	r0
    20d4:	00 0c       	add	r0, r0
    20d6:	11 f4       	brne	.+4      	; 0x20dc <__fp_round+0xc>
    20d8:	88 23       	and	r24, r24
    20da:	52 f0       	brmi	.+20     	; 0x20f0 <__fp_round+0x20>
    20dc:	bb 0f       	add	r27, r27
    20de:	40 f4       	brcc	.+16     	; 0x20f0 <__fp_round+0x20>
    20e0:	bf 2b       	or	r27, r31
    20e2:	11 f4       	brne	.+4      	; 0x20e8 <__fp_round+0x18>
    20e4:	60 ff       	sbrs	r22, 0
    20e6:	04 c0       	rjmp	.+8      	; 0x20f0 <__fp_round+0x20>
    20e8:	6f 5f       	subi	r22, 0xFF	; 255
    20ea:	7f 4f       	sbci	r23, 0xFF	; 255
    20ec:	8f 4f       	sbci	r24, 0xFF	; 255
    20ee:	9f 4f       	sbci	r25, 0xFF	; 255
    20f0:	08 95       	ret

000020f2 <__udivmodhi4>:
    20f2:	aa 1b       	sub	r26, r26
    20f4:	bb 1b       	sub	r27, r27
    20f6:	51 e1       	ldi	r21, 0x11	; 17
    20f8:	07 c0       	rjmp	.+14     	; 0x2108 <__udivmodhi4_ep>

000020fa <__udivmodhi4_loop>:
    20fa:	aa 1f       	adc	r26, r26
    20fc:	bb 1f       	adc	r27, r27
    20fe:	a6 17       	cp	r26, r22
    2100:	b7 07       	cpc	r27, r23
    2102:	10 f0       	brcs	.+4      	; 0x2108 <__udivmodhi4_ep>
    2104:	a6 1b       	sub	r26, r22
    2106:	b7 0b       	sbc	r27, r23

00002108 <__udivmodhi4_ep>:
    2108:	88 1f       	adc	r24, r24
    210a:	99 1f       	adc	r25, r25
    210c:	5a 95       	dec	r21
    210e:	a9 f7       	brne	.-22     	; 0x20fa <__udivmodhi4_loop>
    2110:	80 95       	com	r24
    2112:	90 95       	com	r25
    2114:	bc 01       	movw	r22, r24
    2116:	cd 01       	movw	r24, r26
    2118:	08 95       	ret

0000211a <itoa>:
    211a:	fb 01       	movw	r30, r22
    211c:	9f 01       	movw	r18, r30
    211e:	e8 94       	clt
    2120:	42 30       	cpi	r20, 0x02	; 2
    2122:	c4 f0       	brlt	.+48     	; 0x2154 <itoa+0x3a>
    2124:	45 32       	cpi	r20, 0x25	; 37
    2126:	b4 f4       	brge	.+44     	; 0x2154 <itoa+0x3a>
    2128:	4a 30       	cpi	r20, 0x0A	; 10
    212a:	29 f4       	brne	.+10     	; 0x2136 <itoa+0x1c>
    212c:	97 fb       	bst	r25, 7
    212e:	1e f4       	brtc	.+6      	; 0x2136 <itoa+0x1c>
    2130:	90 95       	com	r25
    2132:	81 95       	neg	r24
    2134:	9f 4f       	sbci	r25, 0xFF	; 255
    2136:	64 2f       	mov	r22, r20
    2138:	77 27       	eor	r23, r23
    213a:	0e 94 79 10 	call	0x20f2	; 0x20f2 <__udivmodhi4>
    213e:	80 5d       	subi	r24, 0xD0	; 208
    2140:	8a 33       	cpi	r24, 0x3A	; 58
    2142:	0c f0       	brlt	.+2      	; 0x2146 <itoa+0x2c>
    2144:	89 5d       	subi	r24, 0xD9	; 217
    2146:	81 93       	st	Z+, r24
    2148:	cb 01       	movw	r24, r22
    214a:	00 97       	sbiw	r24, 0x00	; 0
    214c:	a1 f7       	brne	.-24     	; 0x2136 <itoa+0x1c>
    214e:	16 f4       	brtc	.+4      	; 0x2154 <itoa+0x3a>
    2150:	5d e2       	ldi	r21, 0x2D	; 45
    2152:	51 93       	st	Z+, r21
    2154:	10 82       	st	Z, r1
    2156:	c9 01       	movw	r24, r18
    2158:	0c 94 ae 10 	jmp	0x215c	; 0x215c <strrev>

0000215c <strrev>:
    215c:	dc 01       	movw	r26, r24
    215e:	fc 01       	movw	r30, r24
    2160:	67 2f       	mov	r22, r23
    2162:	71 91       	ld	r23, Z+
    2164:	77 23       	and	r23, r23
    2166:	e1 f7       	brne	.-8      	; 0x2160 <strrev+0x4>
    2168:	32 97       	sbiw	r30, 0x02	; 2
    216a:	04 c0       	rjmp	.+8      	; 0x2174 <strrev+0x18>
    216c:	7c 91       	ld	r23, X
    216e:	6d 93       	st	X+, r22
    2170:	70 83       	st	Z, r23
    2172:	62 91       	ld	r22, -Z
    2174:	ae 17       	cp	r26, r30
    2176:	bf 07       	cpc	r27, r31
    2178:	c8 f3       	brcs	.-14     	; 0x216c <strrev+0x10>
    217a:	08 95       	ret

0000217c <_exit>:
    217c:	f8 94       	cli

0000217e <__stop_program>:
    217e:	ff cf       	rjmp	.-2      	; 0x217e <__stop_program>
