   1               		.file	"main.c"
   2               	__SP_H__ = 0x3e
   3               	__SP_L__ = 0x3d
   4               	__SREG__ = 0x3f
   5               	__tmp_reg__ = 0
   6               	__zero_reg__ = 1
   7               		.text
   8               	.Ltext0:
   9               		.cfi_sections	.debug_frame
  10               	.global	I2C_transmissionError
  12               	I2C_transmissionError:
  13               	.LFB8:
  14               		.file 1 "main.c"
   1:main.c        **** #include "RP6ControlLib.h"
   2:main.c        **** #include "RP6I2CmasterTWI.h"
   3:main.c        **** #include "Drive.h"
   4:main.c        **** #include "MPU9250.h"
   5:main.c        **** #include "Crash.h"
   6:main.c        **** #include <stdbool.h>
   7:main.c        **** #include "RP6Control_I2CMasterLib.h" 	
   8:main.c        **** 
   9:main.c        **** #define DEBUG
  10:main.c        **** 
  11:main.c        **** int lastButton2State = false;
  12:main.c        **** int lastButton3State = false;
  13:main.c        **** int lastButton5State = false;
  14:main.c        **** 
  15:main.c        **** uint8_t sideHit = 0;
  16:main.c        **** uint8_t timesPressed2 = 0;
  17:main.c        **** uint8_t timesPressed3 = 0;
  18:main.c        **** uint8_t timesPressed5 = 0;
  19:main.c        **** 
  20:main.c        **** void task_checkButtonChanged(void)
  21:main.c        **** {
  22:main.c        **** 	if((PINC & IO_PC2) !=  lastButton2State)
  23:main.c        **** 			{
  24:main.c        **** 				buttenChanged();
  25:main.c        **** 
  26:main.c        **** 				#ifdef DEBUG
  27:main.c        **** 					if(PINC & IO_PC2)
  28:main.c        **** 					{
  29:main.c        **** 						sideHit = 2;
  30:main.c        **** 						timesPressed2++;
  31:main.c        **** 						writeButtonPressOnLCD(sideHit, timesPressed2);
  32:main.c        **** 
  33:main.c        **** 						writeString("Button 2 pressed ");
  34:main.c        **** 						writeInteger(timesPressed2, DEC);
  35:main.c        **** 						writeString(" times.");
  36:main.c        **** 						writeString("\n");
  37:main.c        **** 					}
  38:main.c        **** 				#endif
  39:main.c        **** 
  40:main.c        **** 				lastButton2State = PINC & IO_PC2;
  41:main.c        **** 			}	
  42:main.c        **** 
  43:main.c        **** 			else if((PINC & IO_PC3) !=  lastButton3State)
  44:main.c        **** 			{
  45:main.c        **** 				buttenChanged();
  46:main.c        **** 
  47:main.c        **** 				#ifdef DEBUG
  48:main.c        **** 					if(PINC & IO_PC3)
  49:main.c        **** 					{
  50:main.c        **** 						sideHit = 3;
  51:main.c        **** 						timesPressed3++;
  52:main.c        **** 
  53:main.c        **** 						writeButtonPressOnLCD(sideHit, timesPressed3);
  54:main.c        **** 
  55:main.c        **** 						writeString("Button 3 pressed ");
  56:main.c        **** 						writeInteger(timesPressed3, DEC);
  57:main.c        **** 						writeString(" times.");
  58:main.c        **** 						writeString("\n");
  59:main.c        **** 					}
  60:main.c        **** 					#endif
  61:main.c        **** 
  62:main.c        **** 				lastButton3State = PINC & IO_PC3;
  63:main.c        **** 			}	
  64:main.c        **** 
  65:main.c        **** 			else if((PINC & IO_PC5) !=  lastButton5State)
  66:main.c        **** 			{
  67:main.c        **** 				buttenChanged();
  68:main.c        **** 
  69:main.c        **** 				#ifdef DEBUG
  70:main.c        **** 					if(PINC & IO_PC5)
  71:main.c        **** 					{
  72:main.c        **** 						sideHit = 5;
  73:main.c        **** 						timesPressed5++;
  74:main.c        **** 						writeButtonPressOnLCD(sideHit, timesPressed5);
  75:main.c        **** 						writeString("Button 5 pressed ");
  76:main.c        **** 						writeInteger(timesPressed5, DEC);
  77:main.c        **** 						writeString(" times.");
  78:main.c        **** 						writeString("\n");
  79:main.c        **** 					}
  80:main.c        **** 				#endif
  81:main.c        **** 
  82:main.c        **** 				lastButton5State = PINC & IO_PC5;
  83:main.c        **** 			}	
  84:main.c        **** }
  85:main.c        **** 
  86:main.c        **** /**
  87:main.c        ****  * This function gets called automatically if there was an I2C Error like
  88:main.c        ****  * the slave sent a "not acknowledge" (NACK, error codes e.g. 0x20 or 0x30).
  89:main.c        ****  * The most common mistakes are: 
  90:main.c        ****  *   - using the wrong address for the slave
  91:main.c        ****  *   - slave not active or not connected to the I2C-Bus
  92:main.c        ****  *   - too fast requests for a slower slave
  93:main.c        ****  * Be sure to check this if you get I2C errors!
  94:main.c        ****  */
  95:main.c        **** void I2C_transmissionError(uint8_t errorState)
  96:main.c        **** {
  15               		.loc 1 96 0
  16               		.cfi_startproc
  17               	.LVL0:
  18 0000 CF93      		push r28
  19               	.LCFI0:
  20               		.cfi_def_cfa_offset 3
  21               		.cfi_offset 28, -2
  22               	/* prologue: function */
  23               	/* frame size = 0 */
  24               	/* stack size = 1 */
  25               	.L__stack_usage = 1
  26 0002 C82F      		mov r28,r24
  97:main.c        **** 	writeString_P("\nI2C ERROR - TWI STATE: 0x");
  27               		.loc 1 97 0
  28 0004 80E0      		ldi r24,lo8(__c.2414)
  29 0006 90E0      		ldi r25,hi8(__c.2414)
  30               	.LVL1:
  31 0008 0E94 0000 		call writeNStringP
  32               	.LVL2:
  98:main.c        **** 	writeInteger(errorState, HEX);
  33               		.loc 1 98 0
  34 000c 60E1      		ldi r22,lo8(16)
  35 000e 8C2F      		mov r24,r28
  36 0010 90E0      		ldi r25,0
  37 0012 0E94 0000 		call writeInteger
  38               	.LVL3:
  99:main.c        **** 	writeChar('\n');
  39               		.loc 1 99 0
  40 0016 8AE0      		ldi r24,lo8(10)
  41               	/* epilogue start */
 100:main.c        **** }
  42               		.loc 1 100 0
  43 0018 CF91      		pop r28
  44               	.LVL4:
  99:main.c        **** 	writeChar('\n');
  45               		.loc 1 99 0
  46 001a 0C94 0000 		jmp writeChar
  47               	.LVL5:
  48               		.cfi_endproc
  49               	.LFE8:
  51               	.global	watchDogRequest
  53               	watchDogRequest:
  54               	.LFB9:
 101:main.c        **** 
 102:main.c        **** 
 103:main.c        **** /**
 104:main.c        ****  * Timed Watchdog display only - the other heartbeat function
 105:main.c        ****  * does not work in this example as we use blocked moving functions here.
 106:main.c        ****  */
 107:main.c        **** void watchDogRequest(void)
 108:main.c        **** {	
  55               		.loc 1 108 0
  56               		.cfi_startproc
  57               	/* prologue: function */
  58               	/* frame size = 0 */
  59               	/* stack size = 0 */
  60               	.L__stack_usage = 0
 109:main.c        **** 	static uint8_t heartbeat2 = false;
 110:main.c        **** 	if(heartbeat2)
  61               		.loc 1 110 0
  62 001e 8091 0000 		lds r24,heartbeat2.2419
  63 0022 8823      		tst r24
  64 0024 01F0      		breq .L3
  65               	.LBB7:
  66               	.LBB8:
 111:main.c        **** 	{
 112:main.c        **** 		clearPosLCD(0, 14, 1);
  67               		.loc 1 112 0
  68 0026 41E0      		ldi r20,lo8(1)
  69 0028 6EE0      		ldi r22,lo8(14)
  70 002a 80E0      		ldi r24,0
  71 002c 0E94 0000 		call clearPosLCD
  72               	.LVL6:
 113:main.c        **** 		heartbeat2 = false;
  73               		.loc 1 113 0
  74 0030 1092 0000 		sts heartbeat2.2419,__zero_reg__
  75 0034 0895      		ret
  76               	.L3:
  77               	.LBE8:
  78               	.LBE7:
 114:main.c        **** 	}
 115:main.c        **** 	else
 116:main.c        **** 	{
 117:main.c        **** 		setCursorPosLCD(0, 14);
  79               		.loc 1 117 0
  80 0036 6EE0      		ldi r22,lo8(14)
  81 0038 80E0      		ldi r24,0
  82 003a 0E94 0000 		call setCursorPosLCD
  83               	.LVL7:
 118:main.c        **** 		writeStringLCD_P("#"); 
  84               		.loc 1 118 0
  85 003e 80E0      		ldi r24,lo8(__c.2420)
  86 0040 90E0      		ldi r25,hi8(__c.2420)
  87 0042 0E94 0000 		call writeNStringLCD_P
  88               	.LVL8:
 119:main.c        **** 		heartbeat2 = true;
  89               		.loc 1 119 0
  90 0046 81E0      		ldi r24,lo8(1)
  91 0048 8093 0000 		sts heartbeat2.2419,r24
  92 004c 0895      		ret
  93               		.cfi_endproc
  94               	.LFE9:
  96               		.section	.rodata.str1.1,"aMS",@progbits,1
  97               	.LC0:
  98 0000 6274 6E3A 		.string	"btn:     times:"
  98      2020 2020 
  98      2074 696D 
  98      6573 3A00 
  99               	.LC1:
 100 0010 2020 2020 		.string	"        "
 100      2020 2020 
 100      00
 101               		.text
 102               	.global	writeButtonPressOnLCD
 104               	writeButtonPressOnLCD:
 105               	.LFB10:
 120:main.c        **** 	}
 121:main.c        **** }
 122:main.c        **** 
 123:main.c        **** 
 124:main.c        **** void writeButtonPressOnLCD(uint8_t button, int pressed)
 125:main.c        **** {
 106               		.loc 1 125 0
 107               		.cfi_startproc
 108               	.LVL9:
 109 004e 1F93      		push r17
 110               	.LCFI1:
 111               		.cfi_def_cfa_offset 3
 112               		.cfi_offset 17, -2
 113 0050 CF93      		push r28
 114               	.LCFI2:
 115               		.cfi_def_cfa_offset 4
 116               		.cfi_offset 28, -3
 117 0052 DF93      		push r29
 118               	.LCFI3:
 119               		.cfi_def_cfa_offset 5
 120               		.cfi_offset 29, -4
 121               	/* prologue: function */
 122               	/* frame size = 0 */
 123               	/* stack size = 3 */
 124               	.L__stack_usage = 3
 125 0054 182F      		mov r17,r24
 126 0056 EB01      		movw r28,r22
 126:main.c        **** 	clearLCD();
 127               		.loc 1 126 0
 128 0058 0E94 0000 		call clearLCD
 129               	.LVL10:
 127:main.c        **** 	setCursorPosLCD(0,0);
 130               		.loc 1 127 0
 131 005c 60E0      		ldi r22,0
 132 005e 80E0      		ldi r24,0
 133 0060 0E94 0000 		call setCursorPosLCD
 134               	.LVL11:
 128:main.c        **** 	writeStringLCD("btn:     times:");
 135               		.loc 1 128 0
 136 0064 80E0      		ldi r24,lo8(.LC0)
 137 0066 90E0      		ldi r25,hi8(.LC0)
 138 0068 0E94 0000 		call writeStringLCD
 139               	.LVL12:
 129:main.c        **** 	setCursorPosLCD(1,0);
 140               		.loc 1 129 0
 141 006c 60E0      		ldi r22,0
 142 006e 81E0      		ldi r24,lo8(1)
 143 0070 0E94 0000 		call setCursorPosLCD
 144               	.LVL13:
 130:main.c        **** 	writeIntegerLCD(button, DEC);
 145               		.loc 1 130 0
 146 0074 6AE0      		ldi r22,lo8(10)
 147 0076 812F      		mov r24,r17
 148 0078 90E0      		ldi r25,0
 149 007a 0E94 0000 		call writeIntegerLCD
 150               	.LVL14:
 131:main.c        **** 	writeStringLCD("        ");
 151               		.loc 1 131 0
 152 007e 80E0      		ldi r24,lo8(.LC1)
 153 0080 90E0      		ldi r25,hi8(.LC1)
 154 0082 0E94 0000 		call writeStringLCD
 155               	.LVL15:
 132:main.c        **** 	writeIntegerLCD(pressed, DEC);
 156               		.loc 1 132 0
 157 0086 6AE0      		ldi r22,lo8(10)
 158 0088 CE01      		movw r24,r28
 159               	/* epilogue start */
 133:main.c        **** }
 160               		.loc 1 133 0
 161 008a DF91      		pop r29
 162 008c CF91      		pop r28
 163               	.LVL16:
 164 008e 1F91      		pop r17
 165               	.LVL17:
 132:main.c        **** 	writeIntegerLCD(pressed, DEC);
 166               		.loc 1 132 0
 167 0090 0C94 0000 		jmp writeIntegerLCD
 168               	.LVL18:
 169               		.cfi_endproc
 170               	.LFE10:
 172               		.section	.rodata.str1.1
 173               	.LC2:
 174 0019 4275 7474 		.string	"Button 2 pressed "
 174      6F6E 2032 
 174      2070 7265 
 174      7373 6564 
 174      2000 
 175               	.LC3:
 176 002b 2074 696D 		.string	" times."
 176      6573 2E00 
 177               	.LC4:
 178 0033 0A00      		.string	"\n"
 179               	.LC5:
 180 0035 4275 7474 		.string	"Button 3 pressed "
 180      6F6E 2033 
 180      2070 7265 
 180      7373 6564 
 180      2000 
 181               	.LC6:
 182 0047 4275 7474 		.string	"Button 5 pressed "
 182      6F6E 2035 
 182      2070 7265 
 182      7373 6564 
 182      2000 
 183               		.text
 184               	.global	task_checkButtonChanged
 186               	task_checkButtonChanged:
 187               	.LFB7:
  21:main.c        **** {
 188               		.loc 1 21 0
 189               		.cfi_startproc
 190               	/* prologue: function */
 191               	/* frame size = 0 */
 192               	/* stack size = 0 */
 193               	.L__stack_usage = 0
  22:main.c        **** 	if((PINC & IO_PC2) !=  lastButton2State)
 194               		.loc 1 22 0
 195 0094 23B3      		in r18,0x13
 196 0096 2470      		andi r18,lo8(4)
 197 0098 30E0      		ldi r19,0
 198 009a 8091 0000 		lds r24,lastButton2State
 199 009e 9091 0000 		lds r25,lastButton2State+1
 200 00a2 2817      		cp r18,r24
 201 00a4 3907      		cpc r19,r25
 202 00a6 01F0      		breq .L8
  24:main.c        **** 				buttenChanged();
 203               		.loc 1 24 0
 204 00a8 0E94 0000 		call buttenChanged
 205               	.LVL19:
  27:main.c        **** 					if(PINC & IO_PC2)
 206               		.loc 1 27 0
 207 00ac 9A9B      		sbis 0x13,2
 208 00ae 00C0      		rjmp .L9
 209               	.LBB9:
  29:main.c        **** 						sideHit = 2;
 210               		.loc 1 29 0
 211 00b0 82E0      		ldi r24,lo8(2)
 212 00b2 8093 0000 		sts sideHit,r24
  30:main.c        **** 						timesPressed2++;
 213               		.loc 1 30 0
 214 00b6 6091 0000 		lds r22,timesPressed2
 215 00ba 6F5F      		subi r22,lo8(-(1))
 216 00bc 6093 0000 		sts timesPressed2,r22
  31:main.c        **** 						writeButtonPressOnLCD(sideHit, timesPressed2);
 217               		.loc 1 31 0
 218 00c0 70E0      		ldi r23,0
 219 00c2 82E0      		ldi r24,lo8(2)
 220 00c4 90E0      		ldi r25,0
 221 00c6 0E94 0000 		call writeButtonPressOnLCD
 222               	.LVL20:
  33:main.c        **** 						writeString("Button 2 pressed ");
 223               		.loc 1 33 0
 224 00ca 80E0      		ldi r24,lo8(.LC2)
 225 00cc 90E0      		ldi r25,hi8(.LC2)
 226 00ce 0E94 0000 		call writeString
 227               	.LVL21:
  34:main.c        **** 						writeInteger(timesPressed2, DEC);
 228               		.loc 1 34 0
 229 00d2 8091 0000 		lds r24,timesPressed2
 230 00d6 6AE0      		ldi r22,lo8(10)
 231 00d8 90E0      		ldi r25,0
 232 00da 0E94 0000 		call writeInteger
 233               	.LVL22:
  35:main.c        **** 						writeString(" times.");
 234               		.loc 1 35 0
 235 00de 80E0      		ldi r24,lo8(.LC3)
 236 00e0 90E0      		ldi r25,hi8(.LC3)
 237 00e2 0E94 0000 		call writeString
 238               	.LVL23:
  36:main.c        **** 						writeString("\n");
 239               		.loc 1 36 0
 240 00e6 80E0      		ldi r24,lo8(.LC4)
 241 00e8 90E0      		ldi r25,hi8(.LC4)
 242 00ea 0E94 0000 		call writeString
 243               	.LVL24:
 244               	.L9:
 245               	.LBE9:
  40:main.c        **** 				lastButton2State = PINC & IO_PC2;
 246               		.loc 1 40 0
 247 00ee 83B3      		in r24,0x13
 248 00f0 8470      		andi r24,lo8(4)
 249 00f2 90E0      		ldi r25,0
 250 00f4 9093 0000 		sts lastButton2State+1,r25
 251 00f8 8093 0000 		sts lastButton2State,r24
 252 00fc 0895      		ret
 253               	.L8:
  43:main.c        **** 			else if((PINC & IO_PC3) !=  lastButton3State)
 254               		.loc 1 43 0
 255 00fe 23B3      		in r18,0x13
 256 0100 2870      		andi r18,lo8(8)
 257 0102 30E0      		ldi r19,0
 258 0104 8091 0000 		lds r24,lastButton3State
 259 0108 9091 0000 		lds r25,lastButton3State+1
 260 010c 2817      		cp r18,r24
 261 010e 3907      		cpc r19,r25
 262 0110 01F0      		breq .L11
  45:main.c        **** 				buttenChanged();
 263               		.loc 1 45 0
 264 0112 0E94 0000 		call buttenChanged
 265               	.LVL25:
  48:main.c        **** 					if(PINC & IO_PC3)
 266               		.loc 1 48 0
 267 0116 9B9B      		sbis 0x13,3
 268 0118 00C0      		rjmp .L12
 269               	.LBB10:
  50:main.c        **** 						sideHit = 3;
 270               		.loc 1 50 0
 271 011a 83E0      		ldi r24,lo8(3)
 272 011c 8093 0000 		sts sideHit,r24
  51:main.c        **** 						timesPressed3++;
 273               		.loc 1 51 0
 274 0120 6091 0000 		lds r22,timesPressed3
 275 0124 6F5F      		subi r22,lo8(-(1))
 276 0126 6093 0000 		sts timesPressed3,r22
  53:main.c        **** 						writeButtonPressOnLCD(sideHit, timesPressed3);
 277               		.loc 1 53 0
 278 012a 70E0      		ldi r23,0
 279 012c 83E0      		ldi r24,lo8(3)
 280 012e 90E0      		ldi r25,0
 281 0130 0E94 0000 		call writeButtonPressOnLCD
 282               	.LVL26:
  55:main.c        **** 						writeString("Button 3 pressed ");
 283               		.loc 1 55 0
 284 0134 80E0      		ldi r24,lo8(.LC5)
 285 0136 90E0      		ldi r25,hi8(.LC5)
 286 0138 0E94 0000 		call writeString
 287               	.LVL27:
  56:main.c        **** 						writeInteger(timesPressed3, DEC);
 288               		.loc 1 56 0
 289 013c 8091 0000 		lds r24,timesPressed3
 290 0140 6AE0      		ldi r22,lo8(10)
 291 0142 90E0      		ldi r25,0
 292 0144 0E94 0000 		call writeInteger
 293               	.LVL28:
  57:main.c        **** 						writeString(" times.");
 294               		.loc 1 57 0
 295 0148 80E0      		ldi r24,lo8(.LC3)
 296 014a 90E0      		ldi r25,hi8(.LC3)
 297 014c 0E94 0000 		call writeString
 298               	.LVL29:
  58:main.c        **** 						writeString("\n");
 299               		.loc 1 58 0
 300 0150 80E0      		ldi r24,lo8(.LC4)
 301 0152 90E0      		ldi r25,hi8(.LC4)
 302 0154 0E94 0000 		call writeString
 303               	.LVL30:
 304               	.L12:
 305               	.LBE10:
  62:main.c        **** 				lastButton3State = PINC & IO_PC3;
 306               		.loc 1 62 0
 307 0158 83B3      		in r24,0x13
 308 015a 8870      		andi r24,lo8(8)
 309 015c 90E0      		ldi r25,0
 310 015e 9093 0000 		sts lastButton3State+1,r25
 311 0162 8093 0000 		sts lastButton3State,r24
 312 0166 0895      		ret
 313               	.L11:
  65:main.c        **** 			else if((PINC & IO_PC5) !=  lastButton5State)
 314               		.loc 1 65 0
 315 0168 23B3      		in r18,0x13
 316 016a 2072      		andi r18,lo8(32)
 317 016c 30E0      		ldi r19,0
 318 016e 8091 0000 		lds r24,lastButton5State
 319 0172 9091 0000 		lds r25,lastButton5State+1
 320 0176 2817      		cp r18,r24
 321 0178 3907      		cpc r19,r25
 322 017a 01F0      		breq .L7
  67:main.c        **** 				buttenChanged();
 323               		.loc 1 67 0
 324 017c 0E94 0000 		call buttenChanged
 325               	.LVL31:
  70:main.c        **** 					if(PINC & IO_PC5)
 326               		.loc 1 70 0
 327 0180 9D9B      		sbis 0x13,5
 328 0182 00C0      		rjmp .L13
 329               	.LBB11:
  72:main.c        **** 						sideHit = 5;
 330               		.loc 1 72 0
 331 0184 85E0      		ldi r24,lo8(5)
 332 0186 8093 0000 		sts sideHit,r24
  73:main.c        **** 						timesPressed5++;
 333               		.loc 1 73 0
 334 018a 6091 0000 		lds r22,timesPressed5
 335 018e 6F5F      		subi r22,lo8(-(1))
 336 0190 6093 0000 		sts timesPressed5,r22
  74:main.c        **** 						writeButtonPressOnLCD(sideHit, timesPressed5);
 337               		.loc 1 74 0
 338 0194 70E0      		ldi r23,0
 339 0196 85E0      		ldi r24,lo8(5)
 340 0198 90E0      		ldi r25,0
 341 019a 0E94 0000 		call writeButtonPressOnLCD
 342               	.LVL32:
  75:main.c        **** 						writeString("Button 5 pressed ");
 343               		.loc 1 75 0
 344 019e 80E0      		ldi r24,lo8(.LC6)
 345 01a0 90E0      		ldi r25,hi8(.LC6)
 346 01a2 0E94 0000 		call writeString
 347               	.LVL33:
  76:main.c        **** 						writeInteger(timesPressed5, DEC);
 348               		.loc 1 76 0
 349 01a6 8091 0000 		lds r24,timesPressed5
 350 01aa 6AE0      		ldi r22,lo8(10)
 351 01ac 90E0      		ldi r25,0
 352 01ae 0E94 0000 		call writeInteger
 353               	.LVL34:
  77:main.c        **** 						writeString(" times.");
 354               		.loc 1 77 0
 355 01b2 80E0      		ldi r24,lo8(.LC3)
 356 01b4 90E0      		ldi r25,hi8(.LC3)
 357 01b6 0E94 0000 		call writeString
 358               	.LVL35:
  78:main.c        **** 						writeString("\n");
 359               		.loc 1 78 0
 360 01ba 80E0      		ldi r24,lo8(.LC4)
 361 01bc 90E0      		ldi r25,hi8(.LC4)
 362 01be 0E94 0000 		call writeString
 363               	.LVL36:
 364               	.L13:
 365               	.LBE11:
  82:main.c        **** 				lastButton5State = PINC & IO_PC5;
 366               		.loc 1 82 0
 367 01c2 83B3      		in r24,0x13
 368 01c4 8072      		andi r24,lo8(32)
 369 01c6 90E0      		ldi r25,0
 370 01c8 9093 0000 		sts lastButton5State+1,r25
 371 01cc 8093 0000 		sts lastButton5State,r24
 372               	.L7:
 373 01d0 0895      		ret
 374               		.cfi_endproc
 375               	.LFE7:
 377               		.section	.text.startup,"ax",@progbits
 378               	.global	main
 380               	main:
 381               	.LFB11:
 134:main.c        **** 
 135:main.c        **** 
 136:main.c        **** /************************************************************************************/
 137:main.c        **** //====================================================================================
 138:main.c        **** // Main - The program starts here:
 139:main.c        **** //====================================================================================
 140:main.c        **** /************************************************************************************/
 141:main.c        **** 
 142:main.c        **** int main(void)
 143:main.c        **** {
 382               		.loc 1 143 0
 383               		.cfi_startproc
 384 0000 CF93      		push r28
 385               	.LCFI4:
 386               		.cfi_def_cfa_offset 3
 387               		.cfi_offset 28, -2
 388 0002 DF93      		push r29
 389               	.LCFI5:
 390               		.cfi_def_cfa_offset 4
 391               		.cfi_offset 29, -3
 392 0004 00D0      		rcall .
 393 0006 00D0      		rcall .
 394 0008 00D0      		rcall .
 395               	.LCFI6:
 396               		.cfi_def_cfa_offset 10
 397 000a CDB7      		in r28,__SP_L__
 398 000c DEB7      		in r29,__SP_H__
 399               	.LCFI7:
 400               		.cfi_def_cfa_register 28
 401               	/* prologue: function */
 402               	/* frame size = 6 */
 403               	/* stack size = 8 */
 404               	.L__stack_usage = 8
 144:main.c        **** 	initRP6Control(); 	
 405               		.loc 1 144 0
 406 000e 0E94 0000 		call initRP6Control
 407               	.LVL37:
 145:main.c        **** 	initI2C_RP6Lib();
 408               		.loc 1 145 0
 409 0012 0E94 0000 		call initI2C_RP6Lib
 410               	.LVL38:
 146:main.c        **** 	I2CTWI_setTransmissionErrorHandler(I2C_transmissionError);
 411               		.loc 1 146 0
 412 0016 80E0      		ldi r24,lo8(gs(I2C_transmissionError))
 413 0018 90E0      		ldi r25,hi8(gs(I2C_transmissionError))
 414 001a 0E94 0000 		call I2CTWI_setTransmissionErrorHandler
 415               	.LVL39:
 147:main.c        **** 
 148:main.c        **** 	WDT_setRequestHandler(watchDogRequest); 
 416               		.loc 1 148 0
 417 001e 80E0      		ldi r24,lo8(gs(watchDogRequest))
 418 0020 90E0      		ldi r25,hi8(gs(watchDogRequest))
 419 0022 0E94 0000 		call WDT_setRequestHandler
 420               	.LVL40:
 149:main.c        **** 
 150:main.c        **** 	DDRC &= ~IO_PC2; 
 421               		.loc 1 150 0
 422 0026 A298      		cbi 0x14,2
 151:main.c        **** 	DDRC &= ~IO_PC3;  
 423               		.loc 1 151 0
 424 0028 A398      		cbi 0x14,3
 152:main.c        **** 	DDRC &= ~IO_PC5; 
 425               		.loc 1 152 0
 426 002a A598      		cbi 0x14,5
 153:main.c        **** 
 154:main.c        **** 	DDRA &= ~ADC5; 
 427               		.loc 1 154 0
 428 002c D598      		cbi 0x1a,5
 155:main.c        **** 
 156:main.c        **** 	
 157:main.c        **** 
 158:main.c        **** 	#ifdef DEBUG
 159:main.c        **** 
 160:main.c        **** 		if(PINC & IO_PC2) 
 429               		.loc 1 160 0
 430 002e 9A9B      		sbis 0x13,2
 431 0030 00C0      		rjmp .L24
 161:main.c        **** 			writeString_P("\n\nPC2 is HIGH!\n\n");
 432               		.loc 1 161 0
 433 0032 80E0      		ldi r24,lo8(__c.2429)
 434 0034 90E0      		ldi r25,hi8(__c.2429)
 435 0036 00C0      		rjmp .L35
 436               	.L24:
 162:main.c        **** 		else
 163:main.c        **** 			writeString_P("\n\nPC2 is LOW!\n\n");
 437               		.loc 1 163 0
 438 0038 80E0      		ldi r24,lo8(__c.2431)
 439 003a 90E0      		ldi r25,hi8(__c.2431)
 440               	.L35:
 441 003c 0E94 0000 		call writeNStringP
 442               	.LVL41:
 164:main.c        **** 
 165:main.c        **** 		if(PINC & IO_PC3) 
 443               		.loc 1 165 0
 444 0040 9B9B      		sbis 0x13,3
 445 0042 00C0      		rjmp .L26
 166:main.c        **** 			writeString_P("\n\nPC3 is HIGH!\n\n");
 446               		.loc 1 166 0
 447 0044 80E0      		ldi r24,lo8(__c.2433)
 448 0046 90E0      		ldi r25,hi8(__c.2433)
 449 0048 00C0      		rjmp .L36
 450               	.L26:
 167:main.c        **** 		else
 168:main.c        **** 			writeString_P("\n\nPC3 is LOW!\n\n");
 451               		.loc 1 168 0
 452 004a 80E0      		ldi r24,lo8(__c.2435)
 453 004c 90E0      		ldi r25,hi8(__c.2435)
 454               	.L36:
 455 004e 0E94 0000 		call writeNStringP
 456               	.LVL42:
 169:main.c        **** 
 170:main.c        **** 		if(PINC & IO_PC5) 
 457               		.loc 1 170 0
 458 0052 9D9B      		sbis 0x13,5
 459 0054 00C0      		rjmp .L28
 171:main.c        **** 			writeString_P("\n\nPC5 is HIGH!\n\n");
 460               		.loc 1 171 0
 461 0056 80E0      		ldi r24,lo8(__c.2437)
 462 0058 90E0      		ldi r25,hi8(__c.2437)
 463 005a 00C0      		rjmp .L37
 464               	.L28:
 172:main.c        **** 		else
 173:main.c        **** 			writeString_P("\n\nPC5 is LOW!\n\n");
 465               		.loc 1 173 0
 466 005c 80E0      		ldi r24,lo8(__c.2439)
 467 005e 90E0      		ldi r25,hi8(__c.2439)
 468               	.L37:
 469 0060 0E94 0000 		call writeNStringP
 470               	.LVL43:
 174:main.c        **** 	#endif
 175:main.c        **** 
 176:main.c        **** 	
 177:main.c        **** 
 178:main.c        **** 	startStopwatch1();
 471               		.loc 1 178 0
 472 0064 8091 0000 		lds r24,stopwatches
 473 0068 8160      		ori r24,lo8(1)
 474 006a 8093 0000 		sts stopwatches,r24
 179:main.c        **** 	startStopwatch2();	
 475               		.loc 1 179 0
 476 006e 8091 0000 		lds r24,stopwatches
 477 0072 8260      		ori r24,lo8(2)
 478 0074 8093 0000 		sts stopwatches,r24
 180:main.c        **** 
 181:main.c        **** 	// Setup ACS power:
 182:main.c        **** 	I2CTWI_transmit3Bytes(I2C_RP6_BASE_ADR, 0, CMD_SET_ACS_POWER, ACS_PWR_MED);
 479               		.loc 1 182 0
 480 0078 22E0      		ldi r18,lo8(2)
 481 007a 49E0      		ldi r20,lo8(9)
 482 007c 60E0      		ldi r22,0
 483 007e 8AE0      		ldi r24,lo8(10)
 484 0080 0E94 0000 		call I2CTWI_transmit3Bytes
 485               	.LVL44:
 183:main.c        **** 	// Enable Watchdog for Interrupt requests:
 184:main.c        **** 	I2CTWI_transmit3Bytes(I2C_RP6_BASE_ADR, 0, CMD_SET_WDT, true);
 486               		.loc 1 184 0
 487 0084 21E0      		ldi r18,lo8(1)
 488 0086 4BE0      		ldi r20,lo8(11)
 489 0088 60E0      		ldi r22,0
 490 008a 8AE0      		ldi r24,lo8(10)
 491 008c 0E94 0000 		call I2CTWI_transmit3Bytes
 492               	.LVL45:
 185:main.c        **** 	// Enable timed watchdog requests:
 186:main.c        **** 	I2CTWI_transmit3Bytes(I2C_RP6_BASE_ADR, 0, CMD_SET_WDT_RQ, true);
 493               		.loc 1 186 0
 494 0090 21E0      		ldi r18,lo8(1)
 495 0092 4CE0      		ldi r20,lo8(12)
 496 0094 60E0      		ldi r22,0
 497 0096 8AE0      		ldi r24,lo8(10)
 498 0098 0E94 0000 		call I2CTWI_transmit3Bytes
 499               	.LVL46:
 187:main.c        **** 	
 188:main.c        **** 	BUMPERS_setStateChangedHandler(buttenChanged);
 500               		.loc 1 188 0
 501 009c 80E0      		ldi r24,lo8(gs(buttenChanged))
 502 009e 90E0      		ldi r25,hi8(gs(buttenChanged))
 503 00a0 0E94 0000 		call BUMPERS_setStateChangedHandler
 504               	.LVL47:
 189:main.c        **** 
 190:main.c        **** 	initMPU9250();
 505               		.loc 1 190 0
 506 00a4 0E94 0000 		call initMPU9250
 507               	.LVL48:
 191:main.c        **** 
 192:main.c        **** 	gyroData gData;
 193:main.c        **** 
 194:main.c        **** 	bool arrayIsFilled = false;
 195:main.c        **** 	uint8_t counter = 0;
 196:main.c        **** 
 197:main.c        **** 	changeDirection(FWD);
 508               		.loc 1 197 0
 509 00a8 80E0      		ldi r24,0
 510 00aa 0E94 0000 		call changeDirection
 511               	.LVL49:
 512               	.L30:
 198:main.c        **** 
 199:main.c        **** 	while(true)
 200:main.c        **** 	{
 201:main.c        **** 		task_checkINT0();
 513               		.loc 1 201 0
 514 00ae 0E94 0000 		call task_checkINT0
 515               	.LVL50:
 202:main.c        **** 	    task_I2CTWI();
 516               		.loc 1 202 0
 517 00b2 0E94 0000 		call task_I2CTWI
 518               	.LVL51:
 203:main.c        **** 
 204:main.c        **** 		if(getStopwatch1() > 300)
 519               		.loc 1 204 0
 520 00b6 8091 0000 		lds r24,stopwatches+1
 521 00ba 9091 0000 		lds r25,stopwatches+1+1
 522 00be 8D32      		cpi r24,45
 523 00c0 9140      		sbci r25,1
 524 00c2 00F0      		brlo .L31
 205:main.c        **** 		{
 206:main.c        **** 			
 207:main.c        **** 			task_checkButtonChanged();
 525               		.loc 1 207 0
 526 00c4 0E94 0000 		call task_checkButtonChanged
 527               	.LVL52:
 208:main.c        **** 			setStopwatch1(0);
 528               		.loc 1 208 0
 529 00c8 1092 0000 		sts stopwatches+1+1,__zero_reg__
 530 00cc 1092 0000 		sts stopwatches+1,__zero_reg__
 531               	.L31:
 209:main.c        **** 		}
 210:main.c        **** 
 211:main.c        **** 		if(!pressed)
 532               		.loc 1 211 0
 533 00d0 8091 0000 		lds r24,pressed
 534 00d4 8111      		cpse r24,__zero_reg__
 535 00d6 00C0      		rjmp .L32
 212:main.c        **** 		{
 213:main.c        **** 			setLEDs(0b0);
 536               		.loc 1 213 0
 537 00d8 0E94 0000 		call setLEDs
 538               	.LVL53:
 214:main.c        **** 
 215:main.c        **** 			moveAtSpeed(60,60);
 539               		.loc 1 215 0
 540 00dc 6CE3      		ldi r22,lo8(60)
 541 00de 8CE3      		ldi r24,lo8(60)
 542 00e0 0E94 0000 		call moveAtSpeed
 543               	.LVL54:
 216:main.c        **** 
 217:main.c        **** 			if(getStopwatch2() > 500)
 544               		.loc 1 217 0
 545 00e4 8091 0000 		lds r24,stopwatches+3
 546 00e8 9091 0000 		lds r25,stopwatches+3+1
 547 00ec 853F      		cpi r24,-11
 548 00ee 9140      		sbci r25,1
 549 00f0 00F0      		brlo .L30
 218:main.c        **** 			{
 219:main.c        **** 				getAllSensors();
 550               		.loc 1 219 0
 551 00f2 0E94 0000 		call getAllSensors
 552               	.LVL55:
 220:main.c        **** 				saveSpeedData(mleft_speed, mright_speed);
 553               		.loc 1 220 0
 554 00f6 6091 0000 		lds r22,mright_speed
 555 00fa 8091 0000 		lds r24,mleft_speed
 556 00fe 0E94 0000 		call saveSpeedData
 557               	.LVL56:
 221:main.c        **** 				saveGyroData(gData);
 558               		.loc 1 221 0
 559 0102 4981      		ldd r20,Y+1
 560 0104 5A81      		ldd r21,Y+2
 561 0106 6B81      		ldd r22,Y+3
 562 0108 7C81      		ldd r23,Y+4
 563 010a 8D81      		ldd r24,Y+5
 564 010c 9E81      		ldd r25,Y+6
 565 010e 0E94 0000 		call saveGyroData
 566               	.LVL57:
 222:main.c        **** 
 223:main.c        **** 				setStopwatch2(0);
 567               		.loc 1 223 0
 568 0112 1092 0000 		sts stopwatches+3+1,__zero_reg__
 569 0116 1092 0000 		sts stopwatches+3,__zero_reg__
 570 011a 00C0      		rjmp .L30
 571               	.L32:
 224:main.c        **** 			}
 225:main.c        **** 		}
 226:main.c        **** 		else if(!crashInfoWasSend && pressed)
 572               		.loc 1 226 0
 573 011c 8091 0000 		lds r24,crashInfoWasSend
 574 0120 8111      		cpse r24,__zero_reg__
 575 0122 00C0      		rjmp .L34
 227:main.c        **** 		{
 228:main.c        **** 			crashInfoWasSend = assignCrashInfo();
 576               		.loc 1 228 0
 577 0124 0E94 0000 		call assignCrashInfo
 578               	.LVL58:
 579 0128 8093 0000 		sts crashInfoWasSend,r24
 229:main.c        **** 			sendCrashInfo();
 580               		.loc 1 229 0
 581 012c 0E94 0000 		call sendCrashInfo
 582               	.LVL59:
 583 0130 00C0      		rjmp .L30
 584               	.L34:
 230:main.c        **** 		} 
 231:main.c        **** 		else if(crashInfoWasSend && pressed)
 232:main.c        **** 		{
 233:main.c        **** 			stop();
 585               		.loc 1 233 0
 586 0132 0E94 0000 		call stop
 587               	.LVL60:
 588 0136 00C0      		rjmp .L30
 589               		.cfi_endproc
 590               	.LFE11:
 592               		.section	.progmem.data,"a",@progbits
 595               	__c.2439:
 596 0000 0A0A 5043 		.string	"\n\nPC5 is LOW!\n\n"
 596      3520 6973 
 596      204C 4F57 
 596      210A 0A00 
 599               	__c.2437:
 600 0010 0A0A 5043 		.string	"\n\nPC5 is HIGH!\n\n"
 600      3520 6973 
 600      2048 4947 
 600      4821 0A0A 
 600      00
 603               	__c.2435:
 604 0021 0A0A 5043 		.string	"\n\nPC3 is LOW!\n\n"
 604      3320 6973 
 604      204C 4F57 
 604      210A 0A00 
 607               	__c.2433:
 608 0031 0A0A 5043 		.string	"\n\nPC3 is HIGH!\n\n"
 608      3320 6973 
 608      2048 4947 
 608      4821 0A0A 
 608      00
 611               	__c.2431:
 612 0042 0A0A 5043 		.string	"\n\nPC2 is LOW!\n\n"
 612      3220 6973 
 612      204C 4F57 
 612      210A 0A00 
 615               	__c.2429:
 616 0052 0A0A 5043 		.string	"\n\nPC2 is HIGH!\n\n"
 616      3220 6973 
 616      2048 4947 
 616      4821 0A0A 
 616      00
 619               	__c.2420:
 620 0063 2300      		.string	"#"
 621               		.local	heartbeat2.2419
 622               		.comm	heartbeat2.2419,1,1
 625               	__c.2414:
 626 0065 0A49 3243 		.string	"\nI2C ERROR - TWI STATE: 0x"
 626      2045 5252 
 626      4F52 202D 
 626      2054 5749 
 626      2053 5441 
 627               	.global	timesPressed5
 628               		.section .bss
 631               	timesPressed5:
 632 0000 00        		.zero	1
 633               	.global	timesPressed3
 636               	timesPressed3:
 637 0001 00        		.zero	1
 638               	.global	timesPressed2
 641               	timesPressed2:
 642 0002 00        		.zero	1
 643               	.global	sideHit
 646               	sideHit:
 647 0003 00        		.zero	1
 648               	.global	lastButton5State
 651               	lastButton5State:
 652 0004 0000      		.zero	2
 653               	.global	lastButton3State
 656               	lastButton3State:
 657 0006 0000      		.zero	2
 658               	.global	lastButton2State
 661               	lastButton2State:
 662 0008 0000      		.zero	2
 663               		.comm	statusLEDs,1,1
 664               		.comm	drive_status,1,1
 665               		.comm	status,1,1
 666               		.comm	interrupt_status,1,1
 667               		.comm	sDataArray,30,1
 668               		.comm	timer,2,1
 669               		.text
 670               	.Letext0:
 671               		.file 2 "/usr/lib/avr/include/stdint.h"
 672               		.file 3 "../../../../rp6/RP6Examples_20120725f/RP6Lib/RP6control/Stopwatch.h"
 673               		.file 4 "Drive.h"
 674               		.file 5 "MPU9250.h"
 675               		.file 6 "../../../../rp6/RP6Examples_20120725f/RP6Lib/RP6control_I2CMasterLib/internal/RP6Control_
 676               		.file 7 "../../../../rp6/RP6Examples_20120725f/RP6Lib/RP6control/internal/Timer_internal.h"
 677               		.file 8 "Crash.h"
 678               		.file 9 "../../../../rp6/RP6Examples_20120725f/RP6Lib/RP6common/RP6uart.h"
 679               		.file 10 "../../../../rp6/RP6Examples_20120725f/RP6Lib/RP6control/LCD.h"
 680               		.file 11 "../../../../rp6/RP6Examples_20120725f/RP6Lib/RP6control/RP6_control.h"
 681               		.file 12 "../../../../rp6/RP6Examples_20120725f/RP6Lib/RP6control_I2CMasterLib/RP6Control_I2CMaste
 682               		.file 13 "../../../../rp6/RP6Examples_20120725f/RP6Lib/RP6common/RP6I2CmasterTWI.h"
 683               		.file 14 "../../../../rp6/RP6Examples_20120725f/RP6Lib/RP6control/Leds.h"